
build/rboot-host.elf:     file format elf32-littlearm

Sections:
Idx Name          Size      VMA       LMA       File off  Algn
  0 .text         00005e00  08000000  08000000  00008000  2**2
                  CONTENTS, ALLOC, LOAD, READONLY, CODE
  1 .ARM.attributes 00000029  00000000  00000000  0000de00  2**0
                  CONTENTS, READONLY
  2 .comment      00000070  00000000  00000000  0000de29  2**0
                  CONTENTS, READONLY
  3 .debug_frame  000000a4  00000000  00000000  0000de9c  2**2
                  CONTENTS, READONLY, DEBUGGING

Disassembly of section .text:

08000000 <int_vectors>:
 8000000:	20002800 	.word	0x20002800
 8000004:	080000f5 	.word	0x080000f5
 8000008:	0800021f 	.word	0x0800021f
 800000c:	08000171 	.word	0x08000171
 8000010:	08000187 	.word	0x08000187
 8000014:	0800019d 	.word	0x0800019d
 8000018:	080001b3 	.word	0x080001b3
 800001c:	00000000 	.word	0x00000000
 8000020:	00000000 	.word	0x00000000
 8000024:	00000000 	.word	0x00000000
 8000028:	00000000 	.word	0x00000000
 800002c:	080001c9 	.word	0x080001c9
 8000030:	0800021f 	.word	0x0800021f
 8000034:	00000000 	.word	0x00000000
 8000038:	080001d7 	.word	0x080001d7
 800003c:	0800021f 	.word	0x0800021f
 8000040:	08000229 	.word	0x08000229
 8000044:	08000229 	.word	0x08000229
 8000048:	08000229 	.word	0x08000229
 800004c:	08000229 	.word	0x08000229
 8000050:	08000229 	.word	0x08000229
 8000054:	08000229 	.word	0x08000229
 8000058:	08000229 	.word	0x08000229
 800005c:	08000229 	.word	0x08000229
 8000060:	08000229 	.word	0x08000229
 8000064:	08000229 	.word	0x08000229
 8000068:	08000229 	.word	0x08000229
 800006c:	08000229 	.word	0x08000229
 8000070:	08000229 	.word	0x08000229
 8000074:	08000229 	.word	0x08000229
 8000078:	08000229 	.word	0x08000229
 800007c:	08000229 	.word	0x08000229
 8000080:	08000229 	.word	0x08000229
 8000084:	08000229 	.word	0x08000229
 8000088:	08000229 	.word	0x08000229
 800008c:	08000229 	.word	0x08000229
 8000090:	08000229 	.word	0x08000229
 8000094:	08000229 	.word	0x08000229
 8000098:	08000229 	.word	0x08000229
 800009c:	08000229 	.word	0x08000229
 80000a0:	08000229 	.word	0x08000229
 80000a4:	08000229 	.word	0x08000229
 80000a8:	08000229 	.word	0x08000229
 80000ac:	08000229 	.word	0x08000229
 80000b0:	08000229 	.word	0x08000229
 80000b4:	08000229 	.word	0x08000229
 80000b8:	08000229 	.word	0x08000229
 80000bc:	08000229 	.word	0x08000229
 80000c0:	08000229 	.word	0x08000229
 80000c4:	08000229 	.word	0x08000229
 80000c8:	08000229 	.word	0x08000229
 80000cc:	08000229 	.word	0x08000229
 80000d0:	08000229 	.word	0x08000229
 80000d4:	08000229 	.word	0x08000229
 80000d8:	08000229 	.word	0x08000229
 80000dc:	08000229 	.word	0x08000229
 80000e0:	08000229 	.word	0x08000229
 80000e4:	08000229 	.word	0x08000229
 80000e8:	08000229 	.word	0x08000229
 80000ec:	08000229 	.word	0x08000229
 80000f0:	08000229 	.word	0x08000229

080000f4 <Reset_Handler>:
 80000f4:	b672      	cpsid	i
 80000f6:	4912      	ldr	r1, [pc, #72]	; (8000140 <profiling_loop+0x10>)
 80000f8:	4812      	ldr	r0, [pc, #72]	; (8000144 <profiling_loop+0x14>)
 80000fa:	6008      	str	r0, [r1, #0]
 80000fc:	4912      	ldr	r1, [pc, #72]	; (8000148 <profiling_loop+0x18>)
 80000fe:	4813      	ldr	r0, [pc, #76]	; (800014c <profiling_loop+0x1c>)
 8000100:	6008      	str	r0, [r1, #0]
 8000102:	4913      	ldr	r1, [pc, #76]	; (8000150 <profiling_loop+0x20>)
 8000104:	4813      	ldr	r0, [pc, #76]	; (8000154 <profiling_loop+0x24>)
 8000106:	6008      	str	r0, [r1, #0]
 8000108:	4913      	ldr	r1, [pc, #76]	; (8000158 <profiling_loop+0x28>)
 800010a:	2207      	movs	r2, #7
 800010c:	0412      	lsls	r2, r2, #16
 800010e:	6808      	ldr	r0, [r1, #0]
 8000110:	4310      	orrs	r0, r2
 8000112:	6008      	str	r0, [r1, #0]
 8000114:	4811      	ldr	r0, [pc, #68]	; (800015c <profiling_loop+0x2c>)
 8000116:	4912      	ldr	r1, [pc, #72]	; (8000160 <profiling_loop+0x30>)
 8000118:	6008      	str	r0, [r1, #0]
 800011a:	6048      	str	r0, [r1, #4]
 800011c:	6088      	str	r0, [r1, #8]
 800011e:	60c8      	str	r0, [r1, #12]
 8000120:	6108      	str	r0, [r1, #16]
 8000122:	6148      	str	r0, [r1, #20]
 8000124:	6188      	str	r0, [r1, #24]
 8000126:	61c8      	str	r0, [r1, #28]
 8000128:	490e      	ldr	r1, [pc, #56]	; (8000164 <profiling_loop+0x34>)
 800012a:	4a0f      	ldr	r2, [pc, #60]	; (8000168 <profiling_loop+0x38>)
 800012c:	1a88      	subs	r0, r1, r2
 800012e:	4a0f      	ldr	r2, [pc, #60]	; (800016c <profiling_loop+0x3c>)

08000130 <profiling_loop>:
 8000130:	f840 2b04 	str.w	r2, [r0], #4
 8000134:	4288      	cmp	r0, r1
 8000136:	d3fb      	bcc.n	8000130 <profiling_loop>
 8000138:	f000 fafe 	bl	8000738 <startup>
 800013c:	b662      	cpsie	i
 800013e:	e7fe      	b.n	800013e <profiling_loop+0xe>
 8000140:	e000ed18 	.word	0xe000ed18
 8000144:	00000000 	.word	0x00000000
 8000148:	e000ed1c 	.word	0xe000ed1c
 800014c:	ff000000 	.word	0xff000000
 8000150:	e000ed20 	.word	0xe000ed20
 8000154:	00ff0000 	.word	0x00ff0000
 8000158:	e000ed24 	.word	0xe000ed24
 800015c:	ffffffff 	.word	0xffffffff
 8000160:	e000e280 	.word	0xe000e280
 8000164:	20002800 	.word	0x20002800
 8000168:	00000200 	.word	0x00000200
 800016c:	cdcdcdcd 	.word	0xcdcdcdcd

08000170 <HardFault_Handler>:
 8000170:	4670      	mov	r0, lr
 8000172:	f110 0f03 	cmn.w	r0, #3
 8000176:	d102      	bne.n	800017e <HardFault_Handler+0xe>
 8000178:	f3ef 8109 	mrs	r1, PSP
 800017c:	e001      	b.n	8000182 <HardFault_Handler+0x12>
 800017e:	f3ef 8108 	mrs	r1, MSP
 8000182:	f000 b883 	b.w	800028c <on_hard_fault>

08000186 <MemManage_Handler>:
 8000186:	4670      	mov	r0, lr
 8000188:	f110 0f03 	cmn.w	r0, #3
 800018c:	d102      	bne.n	8000194 <MemManage_Handler+0xe>
 800018e:	f3ef 8109 	mrs	r1, PSP
 8000192:	e001      	b.n	8000198 <MemManage_Handler+0x12>
 8000194:	f3ef 8108 	mrs	r1, MSP
 8000198:	f000 b8b0 	b.w	80002fc <on_mem_manage>

0800019c <BusFault_Handler>:
 800019c:	4670      	mov	r0, lr
 800019e:	f110 0f03 	cmn.w	r0, #3
 80001a2:	d102      	bne.n	80001aa <BusFault_Handler+0xe>
 80001a4:	f3ef 8109 	mrs	r1, PSP
 80001a8:	e001      	b.n	80001ae <BusFault_Handler+0x12>
 80001aa:	f3ef 8108 	mrs	r1, MSP
 80001ae:	f000 b8f5 	b.w	800039c <on_bus_fault>

080001b2 <UsageFault_Handler>:
 80001b2:	4670      	mov	r0, lr
 80001b4:	f110 0f03 	cmn.w	r0, #3
 80001b8:	d102      	bne.n	80001c0 <UsageFault_Handler+0xe>
 80001ba:	f3ef 8109 	mrs	r1, PSP
 80001be:	e001      	b.n	80001c4 <UsageFault_Handler+0x12>
 80001c0:	f3ef 8108 	mrs	r1, MSP
 80001c4:	f000 b924 	b.w	8000410 <on_usage_fault>

080001c8 <SVC_Handler>:
 80001c8:	f3ef 8009 	mrs	r0, PSP
 80001cc:	c80f      	ldmia	r0, {r0, r1, r2, r3}
 80001ce:	f000 f987 	bl	80004e0 <svc>
 80001d2:	f8df f080 	ldr.w	pc, [pc, #128]	; 8000254 <process_setup_context+0x1a>

080001d6 <PendSV_Handler>:
 80001d6:	b672      	cpsid	i
 80001d8:	4a1f      	ldr	r2, [pc, #124]	; (8000258 <process_setup_context+0x1e>)
 80001da:	4820      	ldr	r0, [pc, #128]	; (800025c <process_setup_context+0x22>)
 80001dc:	6010      	str	r0, [r2, #0]
 80001de:	4920      	ldr	r1, [pc, #128]	; (8000260 <process_setup_context+0x26>)
 80001e0:	680b      	ldr	r3, [r1, #0]
 80001e2:	2b00      	cmp	r3, #0
 80001e4:	d004      	beq.n	80001f0 <load_context>
 80001e6:	f3ef 8009 	mrs	r0, PSP
 80001ea:	e920 0ff0 	stmdb	r0!, {r4, r5, r6, r7, r8, r9, sl, fp}
 80001ee:	60d8      	str	r0, [r3, #12]

080001f0 <load_context>:
 80001f0:	684a      	ldr	r2, [r1, #4]
 80001f2:	2a00      	cmp	r2, #0
 80001f4:	d00d      	beq.n	8000212 <halt_core>
 80001f6:	6890      	ldr	r0, [r2, #8]
 80001f8:	4b1a      	ldr	r3, [pc, #104]	; (8000264 <process_setup_context+0x2a>)
 80001fa:	6018      	str	r0, [r3, #0]
 80001fc:	68d0      	ldr	r0, [r2, #12]
 80001fe:	e8b0 0ff0 	ldmia.w	r0!, {r4, r5, r6, r7, r8, r9, sl, fp}
 8000202:	f380 8809 	msr	PSP, r0
 8000206:	600a      	str	r2, [r1, #0]
 8000208:	2000      	movs	r0, #0
 800020a:	6048      	str	r0, [r1, #4]

0800020c <context_exit>:
 800020c:	b662      	cpsie	i
 800020e:	f8df f044 	ldr.w	pc, [pc, #68]	; 8000254 <process_setup_context+0x1a>

08000212 <halt_core>:
 8000212:	b662      	cpsie	i
 8000214:	b672      	cpsid	i
 8000216:	4a10      	ldr	r2, [pc, #64]	; (8000258 <process_setup_context+0x1e>)
 8000218:	4810      	ldr	r0, [pc, #64]	; (800025c <process_setup_context+0x22>)
 800021a:	6010      	str	r0, [r2, #0]
 800021c:	e7e8      	b.n	80001f0 <load_context>

0800021e <DebugMon_Handler>:
 800021e:	f3ef 8005 	mrs	r0, IPSR
 8000222:	3810      	subs	r0, #16
 8000224:	f000 bc70 	b.w	8000b08 <kirq_stub>

08000228 <irq_handler>:
 8000228:	f3ef 8005 	mrs	r0, IPSR
 800022c:	3810      	subs	r0, #16
 800022e:	f000 bc85 	b.w	8000b3c <kirq_enter>

08000232 <pend_switch_context>:
 8000232:	4909      	ldr	r1, [pc, #36]	; (8000258 <process_setup_context+0x1e>)
 8000234:	480c      	ldr	r0, [pc, #48]	; (8000268 <process_setup_context+0x2e>)
 8000236:	6008      	str	r0, [r1, #0]
 8000238:	4770      	bx	lr

0800023a <process_setup_context>:
 800023a:	68c2      	ldr	r2, [r0, #12]
 800023c:	08d2      	lsrs	r2, r2, #3
 800023e:	00d2      	lsls	r2, r2, #3
 8000240:	3a40      	subs	r2, #64	; 0x40
 8000242:	4b0a      	ldr	r3, [pc, #40]	; (800026c <process_setup_context+0x32>)
 8000244:	6353      	str	r3, [r2, #52]	; 0x34
 8000246:	6391      	str	r1, [r2, #56]	; 0x38
 8000248:	f05f 7380 	movs.w	r3, #16777216	; 0x1000000
 800024c:	63d3      	str	r3, [r2, #60]	; 0x3c
 800024e:	60c2      	str	r2, [r0, #12]
 8000250:	4770      	bx	lr
 8000252:	0000      	.short	0x0000
 8000254:	fffffffd 	.word	0xfffffffd
 8000258:	e000ed04 	.word	0xe000ed04
 800025c:	08000000 	.word	0x08000000
 8000260:	2000000c 	.word	0x2000000c
 8000264:	20000000 	.word	0x20000000
 8000268:	10000000 	.word	0x10000000
 800026c:	08000ff1 	.word	0x08000ff1

08000270 <svc_call>:
 8000270:	df12      	svc	18
 8000272:	4770      	bx	lr

08000274 <process_fault.part.0>:
 8000274:	b508      	push	{r3, lr}
 8000276:	f000 feab 	bl	8000fd0 <kprocess_get_current>
 800027a:	f000 fe4f 	bl	8000f1c <kprocess_destroy>
 800027e:	4b02      	ldr	r3, [pc, #8]	; (8000288 <process_fault.part.0+0x14>)
 8000280:	2200      	movs	r2, #0
 8000282:	601a      	str	r2, [r3, #0]
 8000284:	bd08      	pop	{r3, pc}
 8000286:	bf00      	nop
 8000288:	e000ed28 	.word	0xe000ed28

0800028c <on_hard_fault>:
 800028c:	b538      	push	{r3, r4, r5, lr}
 800028e:	4605      	mov	r5, r0
 8000290:	4815      	ldr	r0, [pc, #84]	; (80002e8 <on_hard_fault+0x5c>)
 8000292:	460c      	mov	r4, r1
 8000294:	f000 fa78 	bl	8000788 <printk>
 8000298:	4b14      	ldr	r3, [pc, #80]	; (80002ec <on_hard_fault+0x60>)
 800029a:	681b      	ldr	r3, [r3, #0]
 800029c:	079b      	lsls	r3, r3, #30
 800029e:	d502      	bpl.n	80002a6 <on_hard_fault+0x1a>
 80002a0:	4813      	ldr	r0, [pc, #76]	; (80002f0 <on_hard_fault+0x64>)
 80002a2:	69a1      	ldr	r1, [r4, #24]
 80002a4:	e00b      	b.n	80002be <on_hard_fault+0x32>
 80002a6:	f64d 7312 	movw	r3, #57106	; 0xdf12
 80002aa:	69a1      	ldr	r1, [r4, #24]
 80002ac:	f831 2c02 	ldrh.w	r2, [r1, #-2]
 80002b0:	429a      	cmp	r2, r3
 80002b2:	bf05      	ittet	eq
 80002b4:	6961      	ldreq	r1, [r4, #20]
 80002b6:	480f      	ldreq	r0, [pc, #60]	; (80002f4 <on_hard_fault+0x68>)
 80002b8:	480f      	ldrne	r0, [pc, #60]	; (80002f8 <on_hard_fault+0x6c>)
 80002ba:	f021 0101 	biceq.w	r1, r1, #1
 80002be:	f000 fa63 	bl	8000788 <printk>
 80002c2:	3503      	adds	r5, #3
 80002c4:	d10b      	bne.n	80002de <on_hard_fault+0x52>
 80002c6:	69a3      	ldr	r3, [r4, #24]
 80002c8:	f833 2c02 	ldrh.w	r2, [r3, #-2]
 80002cc:	f64d 7312 	movw	r3, #57106	; 0xdf12
 80002d0:	429a      	cmp	r2, r3
 80002d2:	d100      	bne.n	80002d6 <on_hard_fault+0x4a>
 80002d4:	b662      	cpsie	i
 80002d6:	e8bd 4038 	ldmia.w	sp!, {r3, r4, r5, lr}
 80002da:	f7ff bfcb 	b.w	8000274 <process_fault.part.0>
 80002de:	e8bd 4038 	ldmia.w	sp!, {r3, r4, r5, lr}
 80002e2:	f000 b8d3 	b.w	800048c <panic>
 80002e6:	bf00      	nop
 80002e8:	08005640 	.word	0x08005640
 80002ec:	e000ed2c 	.word	0xe000ed2c
 80002f0:	0800564d 	.word	0x0800564d
 80002f4:	08005670 	.word	0x08005670
 80002f8:	0800569e 	.word	0x0800569e

080002fc <on_mem_manage>:
 80002fc:	b570      	push	{r4, r5, r6, lr}
 80002fe:	4c1e      	ldr	r4, [pc, #120]	; (8000378 <on_mem_manage+0x7c>)
 8000300:	4606      	mov	r6, r0
 8000302:	6823      	ldr	r3, [r4, #0]
 8000304:	460d      	mov	r5, r1
 8000306:	f013 0f18 	tst.w	r3, #24
 800030a:	d011      	beq.n	8000330 <on_mem_manage+0x34>
 800030c:	481b      	ldr	r0, [pc, #108]	; (800037c <on_mem_manage+0x80>)
 800030e:	f000 fa3b 	bl	8000788 <printk>
 8000312:	6823      	ldr	r3, [r4, #0]
 8000314:	06d9      	lsls	r1, r3, #27
 8000316:	d501      	bpl.n	800031c <on_mem_manage+0x20>
 8000318:	4819      	ldr	r0, [pc, #100]	; (8000380 <on_mem_manage+0x84>)
 800031a:	e002      	b.n	8000322 <on_mem_manage+0x26>
 800031c:	071a      	lsls	r2, r3, #28
 800031e:	d502      	bpl.n	8000326 <on_mem_manage+0x2a>
 8000320:	4818      	ldr	r0, [pc, #96]	; (8000384 <on_mem_manage+0x88>)
 8000322:	f000 fa31 	bl	8000788 <printk>
 8000326:	4818      	ldr	r0, [pc, #96]	; (8000388 <on_mem_manage+0x8c>)
 8000328:	69a9      	ldr	r1, [r5, #24]
 800032a:	f000 fa2d 	bl	8000788 <printk>
 800032e:	e01a      	b.n	8000366 <on_mem_manage+0x6a>
 8000330:	079b      	lsls	r3, r3, #30
 8000332:	d01c      	beq.n	800036e <on_mem_manage+0x72>
 8000334:	4811      	ldr	r0, [pc, #68]	; (800037c <on_mem_manage+0x80>)
 8000336:	f000 fa27 	bl	8000788 <printk>
 800033a:	6823      	ldr	r3, [r4, #0]
 800033c:	079a      	lsls	r2, r3, #30
 800033e:	d501      	bpl.n	8000344 <on_mem_manage+0x48>
 8000340:	4812      	ldr	r0, [pc, #72]	; (800038c <on_mem_manage+0x90>)
 8000342:	e002      	b.n	800034a <on_mem_manage+0x4e>
 8000344:	07db      	lsls	r3, r3, #31
 8000346:	d502      	bpl.n	800034e <on_mem_manage+0x52>
 8000348:	4811      	ldr	r0, [pc, #68]	; (8000390 <on_mem_manage+0x94>)
 800034a:	f000 fa1d 	bl	8000788 <printk>
 800034e:	4b11      	ldr	r3, [pc, #68]	; (8000394 <on_mem_manage+0x98>)
 8000350:	4811      	ldr	r0, [pc, #68]	; (8000398 <on_mem_manage+0x9c>)
 8000352:	6819      	ldr	r1, [r3, #0]
 8000354:	69aa      	ldr	r2, [r5, #24]
 8000356:	f000 fa17 	bl	8000788 <printk>
 800035a:	3603      	adds	r6, #3
 800035c:	d103      	bne.n	8000366 <on_mem_manage+0x6a>
 800035e:	e8bd 4070 	ldmia.w	sp!, {r4, r5, r6, lr}
 8000362:	f7ff bf87 	b.w	8000274 <process_fault.part.0>
 8000366:	e8bd 4070 	ldmia.w	sp!, {r4, r5, r6, lr}
 800036a:	f000 b88f 	b.w	800048c <panic>
 800036e:	e8bd 4070 	ldmia.w	sp!, {r4, r5, r6, lr}
 8000372:	f7ff bf8b 	b.w	800028c <on_hard_fault>
 8000376:	bf00      	nop
 8000378:	e000ed28 	.word	0xe000ed28
 800037c:	080056bc 	.word	0x080056bc
 8000380:	080056c9 	.word	0x080056c9
 8000384:	080056d9 	.word	0x080056d9
 8000388:	08005754 	.word	0x08005754
 800038c:	080056eb 	.word	0x080056eb
 8000390:	08005701 	.word	0x08005701
 8000394:	e000ed34 	.word	0xe000ed34
 8000398:	0800571e 	.word	0x0800571e

0800039c <on_bus_fault>:
 800039c:	b538      	push	{r3, r4, r5, lr}
 800039e:	4d15      	ldr	r5, [pc, #84]	; (80003f4 <on_bus_fault+0x58>)
 80003a0:	460c      	mov	r4, r1
 80003a2:	682b      	ldr	r3, [r5, #0]
 80003a4:	f413 5ff8 	tst.w	r3, #7936	; 0x1f00
 80003a8:	d01f      	beq.n	80003ea <on_bus_fault+0x4e>
 80003aa:	4813      	ldr	r0, [pc, #76]	; (80003f8 <on_bus_fault+0x5c>)
 80003ac:	f000 f9ec 	bl	8000788 <printk>
 80003b0:	682b      	ldr	r3, [r5, #0]
 80003b2:	04d9      	lsls	r1, r3, #19
 80003b4:	d501      	bpl.n	80003ba <on_bus_fault+0x1e>
 80003b6:	4811      	ldr	r0, [pc, #68]	; (80003fc <on_bus_fault+0x60>)
 80003b8:	e002      	b.n	80003c0 <on_bus_fault+0x24>
 80003ba:	051a      	lsls	r2, r3, #20
 80003bc:	d504      	bpl.n	80003c8 <on_bus_fault+0x2c>
 80003be:	4810      	ldr	r0, [pc, #64]	; (8000400 <on_bus_fault+0x64>)
 80003c0:	69a1      	ldr	r1, [r4, #24]
 80003c2:	f000 f9e1 	bl	8000788 <printk>
 80003c6:	e00c      	b.n	80003e2 <on_bus_fault+0x46>
 80003c8:	f413 6fc0 	tst.w	r3, #1536	; 0x600
 80003cc:	d001      	beq.n	80003d2 <on_bus_fault+0x36>
 80003ce:	480d      	ldr	r0, [pc, #52]	; (8000404 <on_bus_fault+0x68>)
 80003d0:	e002      	b.n	80003d8 <on_bus_fault+0x3c>
 80003d2:	05db      	lsls	r3, r3, #23
 80003d4:	d505      	bpl.n	80003e2 <on_bus_fault+0x46>
 80003d6:	480c      	ldr	r0, [pc, #48]	; (8000408 <on_bus_fault+0x6c>)
 80003d8:	4b0c      	ldr	r3, [pc, #48]	; (800040c <on_bus_fault+0x70>)
 80003da:	69a2      	ldr	r2, [r4, #24]
 80003dc:	6819      	ldr	r1, [r3, #0]
 80003de:	f000 f9d3 	bl	8000788 <printk>
 80003e2:	e8bd 4038 	ldmia.w	sp!, {r3, r4, r5, lr}
 80003e6:	f000 b851 	b.w	800048c <panic>
 80003ea:	e8bd 4038 	ldmia.w	sp!, {r3, r4, r5, lr}
 80003ee:	f7ff bf4d 	b.w	800028c <on_hard_fault>
 80003f2:	bf00      	nop
 80003f4:	e000ed28 	.word	0xe000ed28
 80003f8:	08005739 	.word	0x08005739
 80003fc:	08005745 	.word	0x08005745
 8000400:	08005760 	.word	0x08005760
 8000404:	0800577d 	.word	0x0800577d
 8000408:	080057a6 	.word	0x080057a6
 800040c:	e000ed38 	.word	0xe000ed38

08000410 <on_usage_fault>:
 8000410:	b538      	push	{r3, r4, r5, lr}
 8000412:	4604      	mov	r4, r0
 8000414:	4814      	ldr	r0, [pc, #80]	; (8000468 <on_usage_fault+0x58>)
 8000416:	460d      	mov	r5, r1
 8000418:	f000 f9b6 	bl	8000788 <printk>
 800041c:	4b13      	ldr	r3, [pc, #76]	; (800046c <on_usage_fault+0x5c>)
 800041e:	681b      	ldr	r3, [r3, #0]
 8000420:	0198      	lsls	r0, r3, #6
 8000422:	d501      	bpl.n	8000428 <on_usage_fault+0x18>
 8000424:	4812      	ldr	r0, [pc, #72]	; (8000470 <on_usage_fault+0x60>)
 8000426:	e00f      	b.n	8000448 <on_usage_fault+0x38>
 8000428:	01d9      	lsls	r1, r3, #7
 800042a:	d501      	bpl.n	8000430 <on_usage_fault+0x20>
 800042c:	4811      	ldr	r0, [pc, #68]	; (8000474 <on_usage_fault+0x64>)
 800042e:	e00b      	b.n	8000448 <on_usage_fault+0x38>
 8000430:	031a      	lsls	r2, r3, #12
 8000432:	d501      	bpl.n	8000438 <on_usage_fault+0x28>
 8000434:	4810      	ldr	r0, [pc, #64]	; (8000478 <on_usage_fault+0x68>)
 8000436:	e007      	b.n	8000448 <on_usage_fault+0x38>
 8000438:	f413 2fa0 	tst.w	r3, #327680	; 0x50000
 800043c:	d001      	beq.n	8000442 <on_usage_fault+0x32>
 800043e:	480f      	ldr	r0, [pc, #60]	; (800047c <on_usage_fault+0x6c>)
 8000440:	e002      	b.n	8000448 <on_usage_fault+0x38>
 8000442:	039b      	lsls	r3, r3, #14
 8000444:	d502      	bpl.n	800044c <on_usage_fault+0x3c>
 8000446:	480e      	ldr	r0, [pc, #56]	; (8000480 <on_usage_fault+0x70>)
 8000448:	f000 f99e 	bl	8000788 <printk>
 800044c:	480d      	ldr	r0, [pc, #52]	; (8000484 <on_usage_fault+0x74>)
 800044e:	69a9      	ldr	r1, [r5, #24]
 8000450:	f000 f99a 	bl	8000788 <printk>
 8000454:	3403      	adds	r4, #3
 8000456:	d103      	bne.n	8000460 <on_usage_fault+0x50>
 8000458:	e8bd 4038 	ldmia.w	sp!, {r3, r4, r5, lr}
 800045c:	f7ff bf0a 	b.w	8000274 <process_fault.part.0>
 8000460:	e8bd 4038 	ldmia.w	sp!, {r3, r4, r5, lr}
 8000464:	f000 b812 	b.w	800048c <panic>
 8000468:	080057d6 	.word	0x080057d6
 800046c:	e000ed28 	.word	0xe000ed28
 8000470:	080057e4 	.word	0x080057e4
 8000474:	080057f5 	.word	0x080057f5
 8000478:	08005806 	.word	0x08005806
 800047c:	0800581b 	.word	0x0800581b
 8000480:	08005831 	.word	0x08005831
 8000484:	08005754 	.word	0x08005754

08000488 <stdout_stub>:
 8000488:	4770      	bx	lr
 800048a:	0000      	movs	r0, r0

0800048c <panic>:
 800048c:	4805      	ldr	r0, [pc, #20]	; (80004a4 <panic+0x18>)
 800048e:	b508      	push	{r3, lr}
 8000490:	f000 f97a 	bl	8000788 <printk>
 8000494:	f04f 5000 	mov.w	r0, #536870912	; 0x20000000
 8000498:	f44f 7100 	mov.w	r1, #512	; 0x200
 800049c:	f000 f986 	bl	80007ac <dump>
 80004a0:	e7fe      	b.n	80004a0 <panic+0x14>
 80004a2:	bf00      	nop
 80004a4:	08005844 	.word	0x08005844

080004a8 <kernel_setup_dbg>:
 80004a8:	4b09      	ldr	r3, [pc, #36]	; (80004d0 <kernel_setup_dbg+0x28>)
 80004aa:	b510      	push	{r4, lr}
 80004ac:	4a09      	ldr	r2, [pc, #36]	; (80004d4 <kernel_setup_dbg+0x2c>)
 80004ae:	691c      	ldr	r4, [r3, #16]
 80004b0:	4294      	cmp	r4, r2
 80004b2:	d005      	beq.n	80004c0 <kernel_setup_dbg+0x18>
 80004b4:	e8bd 4010 	ldmia.w	sp!, {r4, lr}
 80004b8:	f06f 0008 	mvn.w	r0, #8
 80004bc:	f004 bb73 	b.w	8004ba6 <error>
 80004c0:	6118      	str	r0, [r3, #16]
 80004c2:	6159      	str	r1, [r3, #20]
 80004c4:	4804      	ldr	r0, [pc, #16]	; (80004d8 <kernel_setup_dbg+0x30>)
 80004c6:	4905      	ldr	r1, [pc, #20]	; (80004dc <kernel_setup_dbg+0x34>)
 80004c8:	e8bd 4010 	ldmia.w	sp!, {r4, lr}
 80004cc:	f000 b95c 	b.w	8000788 <printk>
 80004d0:	2000000c 	.word	0x2000000c
 80004d4:	08000489 	.word	0x08000489
 80004d8:	08005b81 	.word	0x08005b81
 80004dc:	08005852 	.word	0x08005852

080004e0 <svc>:
 80004e0:	e92d 41f0 	stmdb	sp!, {r4, r5, r6, r7, r8, lr}
 80004e4:	4607      	mov	r7, r0
 80004e6:	461e      	mov	r6, r3
 80004e8:	460c      	mov	r4, r1
 80004ea:	4615      	mov	r5, r2
 80004ec:	f000 fd70 	bl	8000fd0 <kprocess_get_current>
 80004f0:	2f2f      	cmp	r7, #47	; 0x2f
 80004f2:	f200 8117 	bhi.w	8000724 <svc+0x244>
 80004f6:	e8df f017 	tbh	[pc, r7, lsl #1]
 80004fa:	0030      	.short	0x0030
 80004fc:	003400ee 	.word	0x003400ee
 8000500:	0040003a 	.word	0x0040003a
 8000504:	004a0044 	.word	0x004a0044
 8000508:	0057004f 	.word	0x0057004f
 800050c:	005f005b 	.word	0x005f005b
 8000510:	00790066 	.word	0x00790066
 8000514:	006b006f 	.word	0x006b006f
 8000518:	007e0073 	.word	0x007e0073
 800051c:	00890083 	.word	0x00890083
 8000520:	0093008e 	.word	0x0093008e
 8000524:	009f0098 	.word	0x009f0098
 8000528:	00a800a4 	.word	0x00a800a4
 800052c:	00b100ac 	.word	0x00b100ac
 8000530:	00b900b5 	.word	0x00b900b5
 8000534:	00cb00c0 	.word	0x00cb00c0
 8000538:	00c500d2 	.word	0x00c500d2
 800053c:	00e100d9 	.word	0x00e100d9
 8000540:	00eb00e6 	.word	0x00eb00e6
 8000544:	00f600f1 	.word	0x00f600f1
 8000548:	011500fc 	.word	0x011500fc
 800054c:	01150115 	.word	0x01150115
 8000550:	01000115 	.word	0x01000115
 8000554:	010c0106 	.word	0x010c0106
 8000558:	011b      	.short	0x011b
 800055a:	4620      	mov	r0, r4
 800055c:	f000 fc32 	bl	8000dc4 <kprocess_create>
 8000560:	e002      	b.n	8000568 <svc+0x88>
 8000562:	4620      	mov	r0, r4
 8000564:	f000 fc9e 	bl	8000ea4 <kprocess_get_flags>
 8000568:	6028      	str	r0, [r5, #0]
 800056a:	e8bd 81f0 	ldmia.w	sp!, {r4, r5, r6, r7, r8, pc}
 800056e:	4620      	mov	r0, r4
 8000570:	4629      	mov	r1, r5
 8000572:	e8bd 41f0 	ldmia.w	sp!, {r4, r5, r6, r7, r8, lr}
 8000576:	f000 bc97 	b.w	8000ea8 <kprocess_set_flags>
 800057a:	4620      	mov	r0, r4
 800057c:	f000 fcc9 	bl	8000f12 <kprocess_get_priority>
 8000580:	e7f2      	b.n	8000568 <svc+0x88>
 8000582:	4620      	mov	r0, r4
 8000584:	4629      	mov	r1, r5
 8000586:	e8bd 41f0 	ldmia.w	sp!, {r4, r5, r6, r7, r8, lr}
 800058a:	f000 bcaf 	b.w	8000eec <kprocess_set_priority>
 800058e:	4620      	mov	r0, r4
 8000590:	e8bd 41f0 	ldmia.w	sp!, {r4, r5, r6, r7, r8, lr}
 8000594:	f000 bcc2 	b.w	8000f1c <kprocess_destroy>
 8000598:	4621      	mov	r1, r4
 800059a:	e8bd 41f0 	ldmia.w	sp!, {r4, r5, r6, r7, r8, lr}
 800059e:	2200      	movs	r2, #0
 80005a0:	f04f 33ff 	mov.w	r3, #4294967295
 80005a4:	f000 bcf4 	b.w	8000f90 <kprocess_sleep>
 80005a8:	e8bd 41f0 	ldmia.w	sp!, {r4, r5, r6, r7, r8, lr}
 80005ac:	f000 bd3a 	b.w	8001024 <kprocess_switch_test>
 80005b0:	e8bd 41f0 	ldmia.w	sp!, {r4, r5, r6, r7, r8, lr}
 80005b4:	f000 bdb0 	b.w	8001118 <kprocess_info>
 80005b8:	4621      	mov	r1, r4
 80005ba:	462a      	mov	r2, r5
 80005bc:	4633      	mov	r3, r6
 80005be:	e8bd 41f0 	ldmia.w	sp!, {r4, r5, r6, r7, r8, lr}
 80005c2:	f000 bacf 	b.w	8000b64 <kirq_register>
 80005c6:	4621      	mov	r1, r4
 80005c8:	e8bd 41f0 	ldmia.w	sp!, {r4, r5, r6, r7, r8, lr}
 80005cc:	f000 baee 	b.w	8000bac <kirq_unregister>
 80005d0:	e8bd 41f0 	ldmia.w	sp!, {r4, r5, r6, r7, r8, lr}
 80005d4:	f000 bf74 	b.w	80014c0 <ksystime_hpet_timeout>
 80005d8:	e8bd 41f0 	ldmia.w	sp!, {r4, r5, r6, r7, r8, lr}
 80005dc:	f000 bf4e 	b.w	800147c <ksystime_second_pulse>
 80005e0:	4620      	mov	r0, r4
 80005e2:	4629      	mov	r1, r5
 80005e4:	e8bd 41f0 	ldmia.w	sp!, {r4, r5, r6, r7, r8, lr}
 80005e8:	f000 bf8e 	b.w	8001508 <ksystime_hpet_setup>
 80005ec:	4620      	mov	r0, r4
 80005ee:	e8bd 41f0 	ldmia.w	sp!, {r4, r5, r6, r7, r8, lr}
 80005f2:	f000 bf3d 	b.w	8001470 <ksystime_get_uptime>
 80005f6:	4629      	mov	r1, r5
 80005f8:	b2f2      	uxtb	r2, r6
 80005fa:	f001 f81f 	bl	800163c <ksystime_soft_timer_create>
 80005fe:	e06a      	b.n	80006d6 <svc+0x1f6>
 8000600:	4620      	mov	r0, r4
 8000602:	4629      	mov	r1, r5
 8000604:	e8bd 41f0 	ldmia.w	sp!, {r4, r5, r6, r7, r8, lr}
 8000608:	f001 b835 	b.w	8001676 <ksystime_soft_timer_start>
 800060c:	4620      	mov	r0, r4
 800060e:	e8bd 41f0 	ldmia.w	sp!, {r4, r5, r6, r7, r8, lr}
 8000612:	f001 b83a 	b.w	800168a <ksystime_soft_timer_stop>
 8000616:	4620      	mov	r0, r4
 8000618:	e8bd 41f0 	ldmia.w	sp!, {r4, r5, r6, r7, r8, lr}
 800061c:	f001 b826 	b.w	800166c <ksystime_soft_timer_destroy>
 8000620:	4621      	mov	r1, r4
 8000622:	e8bd 41f0 	ldmia.w	sp!, {r4, r5, r6, r7, r8, lr}
 8000626:	f001 b85b 	b.w	80016e0 <kipc_post>
 800062a:	4621      	mov	r1, r4
 800062c:	462a      	mov	r2, r5
 800062e:	4633      	mov	r3, r6
 8000630:	e8bd 41f0 	ldmia.w	sp!, {r4, r5, r6, r7, r8, lr}
 8000634:	f001 b8cc 	b.w	80017d0 <kipc_wait>
 8000638:	4621      	mov	r1, r4
 800063a:	e8bd 41f0 	ldmia.w	sp!, {r4, r5, r6, r7, r8, lr}
 800063e:	f001 b913 	b.w	8001868 <kipc_call>
 8000642:	4628      	mov	r0, r5
 8000644:	f001 f9a4 	bl	8001990 <kstream_create>
 8000648:	e045      	b.n	80006d6 <svc+0x1f6>
 800064a:	4621      	mov	r1, r4
 800064c:	f001 f9be 	bl	80019cc <kstream_open>
 8000650:	e78a      	b.n	8000568 <svc+0x88>
 8000652:	4621      	mov	r1, r4
 8000654:	e8bd 41f0 	ldmia.w	sp!, {r4, r5, r6, r7, r8, lr}
 8000658:	f001 b9ca 	b.w	80019f0 <kstream_close>
 800065c:	4620      	mov	r0, r4
 800065e:	f001 f964 	bl	800192a <kstream_get_size>
 8000662:	e781      	b.n	8000568 <svc+0x88>
 8000664:	4620      	mov	r0, r4
 8000666:	f001 f962 	bl	800192e <kstream_get_free>
 800066a:	e77d      	b.n	8000568 <svc+0x88>
 800066c:	4621      	mov	r1, r4
 800066e:	462a      	mov	r2, r5
 8000670:	b2f3      	uxtb	r3, r6
 8000672:	e8bd 41f0 	ldmia.w	sp!, {r4, r5, r6, r7, r8, lr}
 8000676:	f001 b9ce 	b.w	8001a16 <kstream_listen>
 800067a:	4621      	mov	r1, r4
 800067c:	e8bd 41f0 	ldmia.w	sp!, {r4, r5, r6, r7, r8, lr}
 8000680:	f001 b9dc 	b.w	8001a3c <kstream_stop_listen>
 8000684:	4620      	mov	r0, r4
 8000686:	4629      	mov	r1, r5
 8000688:	6832      	ldr	r2, [r6, #0]
 800068a:	f001 fa2b 	bl	8001ae4 <kstream_write_no_block>
 800068e:	e012      	b.n	80006b6 <svc+0x1d6>
 8000690:	4621      	mov	r1, r4
 8000692:	462a      	mov	r2, r5
 8000694:	4633      	mov	r3, r6
 8000696:	e8bd 41f0 	ldmia.w	sp!, {r4, r5, r6, r7, r8, lr}
 800069a:	f001 ba2d 	b.w	8001af8 <kstream_write>
 800069e:	4621      	mov	r1, r4
 80006a0:	462a      	mov	r2, r5
 80006a2:	4633      	mov	r3, r6
 80006a4:	e8bd 41f0 	ldmia.w	sp!, {r4, r5, r6, r7, r8, lr}
 80006a8:	f001 bad6 	b.w	8001c58 <kstream_read>
 80006ac:	4620      	mov	r0, r4
 80006ae:	4629      	mov	r1, r5
 80006b0:	6832      	ldr	r2, [r6, #0]
 80006b2:	f001 fa4f 	bl	8001b54 <kstream_read_no_block>
 80006b6:	6030      	str	r0, [r6, #0]
 80006b8:	e8bd 81f0 	ldmia.w	sp!, {r4, r5, r6, r7, r8, pc}
 80006bc:	4620      	mov	r0, r4
 80006be:	e8bd 41f0 	ldmia.w	sp!, {r4, r5, r6, r7, r8, lr}
 80006c2:	f001 baf3 	b.w	8001cac <kstream_flush>
 80006c6:	4620      	mov	r0, r4
 80006c8:	e8bd 41f0 	ldmia.w	sp!, {r4, r5, r6, r7, r8, lr}
 80006cc:	f001 bb04 	b.w	8001cd8 <kstream_destroy>
 80006d0:	4628      	mov	r0, r5
 80006d2:	f001 fb55 	bl	8001d80 <kio_create>
 80006d6:	6020      	str	r0, [r4, #0]
 80006d8:	e8bd 81f0 	ldmia.w	sp!, {r4, r5, r6, r7, r8, pc}
 80006dc:	4620      	mov	r0, r4
 80006de:	e8bd 41f0 	ldmia.w	sp!, {r4, r5, r6, r7, r8, lr}
 80006e2:	f001 bb86 	b.w	8001df2 <kio_destroy>
 80006e6:	4621      	mov	r1, r4
 80006e8:	462a      	mov	r2, r5
 80006ea:	e8bd 41f0 	ldmia.w	sp!, {r4, r5, r6, r7, r8, lr}
 80006ee:	f001 bb1b 	b.w	8001d28 <kobject_set>
 80006f2:	4620      	mov	r0, r4
 80006f4:	f001 fb32 	bl	8001d5c <kobject_get>
 80006f8:	e736      	b.n	8000568 <svc+0x88>
 80006fa:	4620      	mov	r0, r4
 80006fc:	4629      	mov	r1, r5
 80006fe:	e8bd 41f0 	ldmia.w	sp!, {r4, r5, r6, r7, r8, lr}
 8000702:	f000 b9b5 	b.w	8000a70 <kstdlib_add_pool>
 8000706:	4620      	mov	r0, r4
 8000708:	4629      	mov	r1, r5
 800070a:	e8bd 41f0 	ldmia.w	sp!, {r4, r5, r6, r7, r8, lr}
 800070e:	f7ff becb 	b.w	80004a8 <kernel_setup_dbg>
 8000712:	4b08      	ldr	r3, [pc, #32]	; (8000734 <svc+0x254>)
 8000714:	4620      	mov	r0, r4
 8000716:	691e      	ldr	r6, [r3, #16]
 8000718:	4629      	mov	r1, r5
 800071a:	695a      	ldr	r2, [r3, #20]
 800071c:	4633      	mov	r3, r6
 800071e:	e8bd 41f0 	ldmia.w	sp!, {r4, r5, r6, r7, r8, lr}
 8000722:	4718      	bx	r3
 8000724:	f06f 0008 	mvn.w	r0, #8
 8000728:	e8bd 41f0 	ldmia.w	sp!, {r4, r5, r6, r7, r8, lr}
 800072c:	f004 ba3b 	b.w	8004ba6 <error>
 8000730:	e8bd 81f0 	ldmia.w	sp!, {r4, r5, r6, r7, r8, pc}
 8000734:	2000000c 	.word	0x2000000c

08000738 <startup>:
 8000738:	4a0e      	ldr	r2, [pc, #56]	; (8000774 <startup+0x3c>)
 800073a:	f04f 5300 	mov.w	r3, #536870912	; 0x20000000
 800073e:	b510      	push	{r4, lr}
 8000740:	605a      	str	r2, [r3, #4]
 8000742:	4c0d      	ldr	r4, [pc, #52]	; (8000778 <startup+0x40>)
 8000744:	4a0d      	ldr	r2, [pc, #52]	; (800077c <startup+0x44>)
 8000746:	2100      	movs	r1, #0
 8000748:	609a      	str	r2, [r3, #8]
 800074a:	4620      	mov	r0, r4
 800074c:	f44f 7286 	mov.w	r2, #268	; 0x10c
 8000750:	f004 fe9c 	bl	800548c <memset>
 8000754:	4b0a      	ldr	r3, [pc, #40]	; (8000780 <startup+0x48>)
 8000756:	6123      	str	r3, [r4, #16]
 8000758:	f000 f9dc 	bl	8000b14 <kirq_init>
 800075c:	f000 f952 	bl	8000a04 <kstdlib_init>
 8000760:	f000 ff9a 	bl	8001698 <ksystime_init>
 8000764:	f001 fad0 	bl	8001d08 <kobject_init>
 8000768:	e8bd 4010 	ldmia.w	sp!, {r4, lr}
 800076c:	4805      	ldr	r0, [pc, #20]	; (8000784 <startup+0x4c>)
 800076e:	f000 bc4f 	b.w	8001010 <kprocess_init>
 8000772:	bf00      	nop
 8000774:	080004e1 	.word	0x080004e1
 8000778:	2000000c 	.word	0x2000000c
 800077c:	08005b88 	.word	0x08005b88
 8000780:	08000489 	.word	0x08000489
 8000784:	08005da0 	.word	0x08005da0

08000788 <printk>:
 8000788:	b40f      	push	{r0, r1, r2, r3}
 800078a:	b507      	push	{r0, r1, r2, lr}
 800078c:	a904      	add	r1, sp, #16
 800078e:	f851 0b04 	ldr.w	r0, [r1], #4
 8000792:	4b05      	ldr	r3, [pc, #20]	; (80007a8 <printk+0x20>)
 8000794:	9101      	str	r1, [sp, #4]
 8000796:	691a      	ldr	r2, [r3, #16]
 8000798:	695b      	ldr	r3, [r3, #20]
 800079a:	f004 fa35 	bl	8004c08 <format>
 800079e:	b003      	add	sp, #12
 80007a0:	f85d eb04 	ldr.w	lr, [sp], #4
 80007a4:	b004      	add	sp, #16
 80007a6:	4770      	bx	lr
 80007a8:	2000000c 	.word	0x2000000c

080007ac <dump>:
 80007ac:	e92d 41f0 	stmdb	sp!, {r4, r5, r6, r7, r8, lr}
 80007b0:	4606      	mov	r6, r0
 80007b2:	eb00 0801 	add.w	r8, r0, r1
 80007b6:	460f      	mov	r7, r1
 80007b8:	4812      	ldr	r0, [pc, #72]	; (8000804 <dump+0x58>)
 80007ba:	4631      	mov	r1, r6
 80007bc:	4642      	mov	r2, r8
 80007be:	f7ff ffe3 	bl	8000788 <printk>
 80007c2:	4634      	mov	r4, r6
 80007c4:	4544      	cmp	r4, r8
 80007c6:	eba4 0306 	sub.w	r3, r4, r6
 80007ca:	d011      	beq.n	80007f0 <dump+0x44>
 80007cc:	f013 050f 	ands.w	r5, r3, #15
 80007d0:	d103      	bne.n	80007da <dump+0x2e>
 80007d2:	480d      	ldr	r0, [pc, #52]	; (8000808 <dump+0x5c>)
 80007d4:	4621      	mov	r1, r4
 80007d6:	f7ff ffd7 	bl	8000788 <printk>
 80007da:	480c      	ldr	r0, [pc, #48]	; (800080c <dump+0x60>)
 80007dc:	f814 1b01 	ldrb.w	r1, [r4], #1
 80007e0:	f7ff ffd2 	bl	8000788 <printk>
 80007e4:	2d0f      	cmp	r5, #15
 80007e6:	d1ed      	bne.n	80007c4 <dump+0x18>
 80007e8:	4809      	ldr	r0, [pc, #36]	; (8000810 <dump+0x64>)
 80007ea:	f7ff ffcd 	bl	8000788 <printk>
 80007ee:	e7e9      	b.n	80007c4 <dump+0x18>
 80007f0:	073b      	lsls	r3, r7, #28
 80007f2:	d004      	beq.n	80007fe <dump+0x52>
 80007f4:	e8bd 41f0 	ldmia.w	sp!, {r4, r5, r6, r7, r8, lr}
 80007f8:	4805      	ldr	r0, [pc, #20]	; (8000810 <dump+0x64>)
 80007fa:	f7ff bfc5 	b.w	8000788 <printk>
 80007fe:	e8bd 81f0 	ldmia.w	sp!, {r4, r5, r6, r7, r8, pc}
 8000802:	bf00      	nop
 8000804:	0800585e 	.word	0x0800585e
 8000808:	08005879 	.word	0x08005879
 800080c:	08005882 	.word	0x08005882
 8000810:	08005b3b 	.word	0x08005b3b

08000814 <kmalloc_startup>:
 8000814:	4601      	mov	r1, r0
 8000816:	466a      	mov	r2, sp
 8000818:	f04f 5300 	mov.w	r3, #536870912	; 0x20000000
 800081c:	689b      	ldr	r3, [r3, #8]
 800081e:	4803      	ldr	r0, [pc, #12]	; (800082c <kmalloc_startup+0x18>)
 8000820:	681b      	ldr	r3, [r3, #0]
 8000822:	f8d0 00f4 	ldr.w	r0, [r0, #244]	; 0xf4
 8000826:	68db      	ldr	r3, [r3, #12]
 8000828:	4718      	bx	r3
 800082a:	bf00      	nop
 800082c:	2000000c 	.word	0x2000000c

08000830 <kpool_at>:
 8000830:	4b02      	ldr	r3, [pc, #8]	; (800083c <kpool_at+0xc>)
 8000832:	4601      	mov	r1, r0
 8000834:	f8d3 00f4 	ldr.w	r0, [r3, #244]	; 0xf4
 8000838:	f000 b948 	b.w	8000acc <karray_at_internal>
 800083c:	2000000c 	.word	0x2000000c

08000840 <kmalloc_internal>:
 8000840:	b5f8      	push	{r3, r4, r5, r6, r7, lr}
 8000842:	4606      	mov	r6, r0
 8000844:	2400      	movs	r4, #0
 8000846:	4b10      	ldr	r3, [pc, #64]	; (8000888 <kmalloc_internal+0x48>)
 8000848:	f8d3 00f4 	ldr.w	r0, [r3, #244]	; 0xf4
 800084c:	f000 f948 	bl	8000ae0 <karray_size_internal>
 8000850:	4284      	cmp	r4, r0
 8000852:	d217      	bcs.n	8000884 <kmalloc_internal+0x44>
 8000854:	4620      	mov	r0, r4
 8000856:	f7ff ffeb 	bl	8000830 <kpool_at>
 800085a:	f04f 5300 	mov.w	r3, #536870912	; 0x20000000
 800085e:	689b      	ldr	r3, [r3, #8]
 8000860:	4605      	mov	r5, r0
 8000862:	681b      	ldr	r3, [r3, #0]
 8000864:	4620      	mov	r0, r4
 8000866:	68df      	ldr	r7, [r3, #12]
 8000868:	f7ff ffe2 	bl	8000830 <kpool_at>
 800086c:	3008      	adds	r0, #8
 800086e:	b90c      	cbnz	r4, 8000874 <kmalloc_internal+0x34>
 8000870:	466a      	mov	r2, sp
 8000872:	e002      	b.n	800087a <kmalloc_internal+0x3a>
 8000874:	e895 000c 	ldmia.w	r5, {r2, r3}
 8000878:	441a      	add	r2, r3
 800087a:	4631      	mov	r1, r6
 800087c:	47b8      	blx	r7
 800087e:	b910      	cbnz	r0, 8000886 <kmalloc_internal+0x46>
 8000880:	3401      	adds	r4, #1
 8000882:	e7e0      	b.n	8000846 <kmalloc_internal+0x6>
 8000884:	2000      	movs	r0, #0
 8000886:	bdf8      	pop	{r3, r4, r5, r6, r7, pc}
 8000888:	2000000c 	.word	0x2000000c

0800088c <kpool_idx>:
 800088c:	b538      	push	{r3, r4, r5, lr}
 800088e:	4605      	mov	r5, r0
 8000890:	2400      	movs	r4, #0
 8000892:	4b0c      	ldr	r3, [pc, #48]	; (80008c4 <kpool_idx+0x38>)
 8000894:	f8d3 00f4 	ldr.w	r0, [r3, #244]	; 0xf4
 8000898:	f000 f922 	bl	8000ae0 <karray_size_internal>
 800089c:	4284      	cmp	r4, r0
 800089e:	d20b      	bcs.n	80008b8 <kpool_idx+0x2c>
 80008a0:	4620      	mov	r0, r4
 80008a2:	f7ff ffc5 	bl	8000830 <kpool_at>
 80008a6:	6802      	ldr	r2, [r0, #0]
 80008a8:	42aa      	cmp	r2, r5
 80008aa:	d203      	bcs.n	80008b4 <kpool_idx+0x28>
 80008ac:	6843      	ldr	r3, [r0, #4]
 80008ae:	4413      	add	r3, r2
 80008b0:	42ab      	cmp	r3, r5
 80008b2:	d804      	bhi.n	80008be <kpool_idx+0x32>
 80008b4:	3401      	adds	r4, #1
 80008b6:	e7ec      	b.n	8000892 <kpool_idx+0x6>
 80008b8:	f04f 30ff 	mov.w	r0, #4294967295
 80008bc:	bd38      	pop	{r3, r4, r5, pc}
 80008be:	4620      	mov	r0, r4
 80008c0:	bd38      	pop	{r3, r4, r5, pc}
 80008c2:	bf00      	nop
 80008c4:	2000000c 	.word	0x2000000c

080008c8 <krealloc_internal>:
 80008c8:	e92d 43f8 	stmdb	sp!, {r3, r4, r5, r6, r7, r8, r9, lr}
 80008cc:	4688      	mov	r8, r1
 80008ce:	4606      	mov	r6, r0
 80008d0:	b920      	cbnz	r0, 80008dc <krealloc_internal+0x14>
 80008d2:	e8bd 43f8 	ldmia.w	sp!, {r3, r4, r5, r6, r7, r8, r9, lr}
 80008d6:	4608      	mov	r0, r1
 80008d8:	f7ff bfb2 	b.w	8000840 <kmalloc_internal>
 80008dc:	f7ff ffd6 	bl	800088c <kpool_idx>
 80008e0:	1e07      	subs	r7, r0, #0
 80008e2:	da02      	bge.n	80008ea <krealloc_internal+0x22>
 80008e4:	2000      	movs	r0, #0
 80008e6:	e8bd 83f8 	ldmia.w	sp!, {r3, r4, r5, r6, r7, r8, r9, pc}
 80008ea:	f7ff ffa1 	bl	8000830 <kpool_at>
 80008ee:	f04f 5300 	mov.w	r3, #536870912	; 0x20000000
 80008f2:	689b      	ldr	r3, [r3, #8]
 80008f4:	4602      	mov	r2, r0
 80008f6:	681b      	ldr	r3, [r3, #0]
 80008f8:	3008      	adds	r0, #8
 80008fa:	695c      	ldr	r4, [r3, #20]
 80008fc:	b90f      	cbnz	r7, 8000902 <krealloc_internal+0x3a>
 80008fe:	466b      	mov	r3, sp
 8000900:	e002      	b.n	8000908 <krealloc_internal+0x40>
 8000902:	e892 000a 	ldmia.w	r2, {r1, r3}
 8000906:	440b      	add	r3, r1
 8000908:	4631      	mov	r1, r6
 800090a:	4642      	mov	r2, r8
 800090c:	47a0      	blx	r4
 800090e:	2800      	cmp	r0, #0
 8000910:	d13c      	bne.n	800098c <krealloc_internal+0xc4>
 8000912:	4605      	mov	r5, r0
 8000914:	4b1e      	ldr	r3, [pc, #120]	; (8000990 <krealloc_internal+0xc8>)
 8000916:	f8d3 00f4 	ldr.w	r0, [r3, #244]	; 0xf4
 800091a:	f000 f8e1 	bl	8000ae0 <karray_size_internal>
 800091e:	4285      	cmp	r5, r0
 8000920:	d2e0      	bcs.n	80008e4 <krealloc_internal+0x1c>
 8000922:	42bd      	cmp	r5, r7
 8000924:	d030      	beq.n	8000988 <krealloc_internal+0xc0>
 8000926:	4628      	mov	r0, r5
 8000928:	f7ff ff82 	bl	8000830 <kpool_at>
 800092c:	f04f 5300 	mov.w	r3, #536870912	; 0x20000000
 8000930:	689b      	ldr	r3, [r3, #8]
 8000932:	4681      	mov	r9, r0
 8000934:	681b      	ldr	r3, [r3, #0]
 8000936:	4628      	mov	r0, r5
 8000938:	68dc      	ldr	r4, [r3, #12]
 800093a:	f7ff ff79 	bl	8000830 <kpool_at>
 800093e:	3008      	adds	r0, #8
 8000940:	b90d      	cbnz	r5, 8000946 <krealloc_internal+0x7e>
 8000942:	466a      	mov	r2, sp
 8000944:	e002      	b.n	800094c <krealloc_internal+0x84>
 8000946:	e899 000c 	ldmia.w	r9, {r2, r3}
 800094a:	441a      	add	r2, r3
 800094c:	4641      	mov	r1, r8
 800094e:	47a0      	blx	r4
 8000950:	4604      	mov	r4, r0
 8000952:	b1c8      	cbz	r0, 8000988 <krealloc_internal+0xc0>
 8000954:	f04f 5500 	mov.w	r5, #536870912	; 0x20000000
 8000958:	68ab      	ldr	r3, [r5, #8]
 800095a:	4631      	mov	r1, r6
 800095c:	681b      	ldr	r3, [r3, #0]
 800095e:	f109 0008 	add.w	r0, r9, #8
 8000962:	691b      	ldr	r3, [r3, #16]
 8000964:	4798      	blx	r3
 8000966:	4631      	mov	r1, r6
 8000968:	4602      	mov	r2, r0
 800096a:	4620      	mov	r0, r4
 800096c:	f004 fcb4 	bl	80052d8 <memcpy>
 8000970:	68ab      	ldr	r3, [r5, #8]
 8000972:	4638      	mov	r0, r7
 8000974:	681b      	ldr	r3, [r3, #0]
 8000976:	699d      	ldr	r5, [r3, #24]
 8000978:	f7ff ff5a 	bl	8000830 <kpool_at>
 800097c:	4631      	mov	r1, r6
 800097e:	3008      	adds	r0, #8
 8000980:	47a8      	blx	r5
 8000982:	4620      	mov	r0, r4
 8000984:	e8bd 83f8 	ldmia.w	sp!, {r3, r4, r5, r6, r7, r8, r9, pc}
 8000988:	3501      	adds	r5, #1
 800098a:	e7c3      	b.n	8000914 <krealloc_internal+0x4c>
 800098c:	e8bd 83f8 	ldmia.w	sp!, {r3, r4, r5, r6, r7, r8, r9, pc}
 8000990:	2000000c 	.word	0x2000000c

08000994 <kfree_internal>:
 8000994:	b570      	push	{r4, r5, r6, lr}
 8000996:	4605      	mov	r5, r0
 8000998:	b180      	cbz	r0, 80009bc <kfree_internal+0x28>
 800099a:	f7ff ff77 	bl	800088c <kpool_idx>
 800099e:	2800      	cmp	r0, #0
 80009a0:	db0c      	blt.n	80009bc <kfree_internal+0x28>
 80009a2:	f04f 5300 	mov.w	r3, #536870912	; 0x20000000
 80009a6:	689b      	ldr	r3, [r3, #8]
 80009a8:	681b      	ldr	r3, [r3, #0]
 80009aa:	699c      	ldr	r4, [r3, #24]
 80009ac:	f7ff ff40 	bl	8000830 <kpool_at>
 80009b0:	4629      	mov	r1, r5
 80009b2:	4623      	mov	r3, r4
 80009b4:	e8bd 4070 	ldmia.w	sp!, {r4, r5, r6, lr}
 80009b8:	3008      	adds	r0, #8
 80009ba:	4718      	bx	r3
 80009bc:	bd70      	pop	{r4, r5, r6, pc}

080009be <kpool_stat>:
 80009be:	b570      	push	{r4, r5, r6, lr}
 80009c0:	4606      	mov	r6, r0
 80009c2:	460d      	mov	r5, r1
 80009c4:	f7ff ff34 	bl	8000830 <kpool_at>
 80009c8:	f04f 5200 	mov.w	r2, #536870912	; 0x20000000
 80009cc:	6892      	ldr	r2, [r2, #8]
 80009ce:	4603      	mov	r3, r0
 80009d0:	6812      	ldr	r2, [r2, #0]
 80009d2:	3008      	adds	r0, #8
 80009d4:	6a14      	ldr	r4, [r2, #32]
 80009d6:	b90e      	cbnz	r6, 80009dc <kpool_stat+0x1e>
 80009d8:	466a      	mov	r2, sp
 80009da:	e001      	b.n	80009e0 <kpool_stat+0x22>
 80009dc:	cb0c      	ldmia	r3, {r2, r3}
 80009de:	441a      	add	r2, r3
 80009e0:	4629      	mov	r1, r5
 80009e2:	4623      	mov	r3, r4
 80009e4:	e8bd 4070 	ldmia.w	sp!, {r4, r5, r6, lr}
 80009e8:	4718      	bx	r3

080009ea <kmalloc>:
 80009ea:	b508      	push	{r3, lr}
 80009ec:	b672      	cpsid	i
 80009ee:	f7ff ff27 	bl	8000840 <kmalloc_internal>
 80009f2:	b662      	cpsie	i
 80009f4:	bd08      	pop	{r3, pc}

080009f6 <kfree>:
 80009f6:	b508      	push	{r3, lr}
 80009f8:	b672      	cpsid	i
 80009fa:	f7ff ffcb 	bl	8000994 <kfree_internal>
 80009fe:	b662      	cpsie	i
 8000a00:	bd08      	pop	{r3, pc}
 8000a02:	0000      	movs	r0, r0

08000a04 <kstdlib_init>:
 8000a04:	e92d 41ff 	stmdb	sp!, {r0, r1, r2, r3, r4, r5, r6, r7, r8, lr}
 8000a08:	4f16      	ldr	r7, [pc, #88]	; (8000a64 <kstdlib_init+0x60>)
 8000a0a:	ad01      	add	r5, sp, #4
 8000a0c:	4e16      	ldr	r6, [pc, #88]	; (8000a68 <kstdlib_init+0x64>)
 8000a0e:	4628      	mov	r0, r5
 8000a10:	4639      	mov	r1, r7
 8000a12:	f001 fac1 	bl	8001f98 <pool_init>
 8000a16:	f04f 5400 	mov.w	r4, #536870912	; 0x20000000
 8000a1a:	f8c6 50f4 	str.w	r5, [r6, #244]	; 0xf4
 8000a1e:	68a3      	ldr	r3, [r4, #8]
 8000a20:	6026      	str	r6, [r4, #0]
 8000a22:	68db      	ldr	r3, [r3, #12]
 8000a24:	f8df 8044 	ldr.w	r8, [pc, #68]	; 8000a6c <kstdlib_init+0x68>
 8000a28:	f8d3 c000 	ldr.w	ip, [r3]
 8000a2c:	4641      	mov	r1, r8
 8000a2e:	2214      	movs	r2, #20
 8000a30:	4668      	mov	r0, sp
 8000a32:	2301      	movs	r3, #1
 8000a34:	47e0      	blx	ip
 8000a36:	68a3      	ldr	r3, [r4, #8]
 8000a38:	4641      	mov	r1, r8
 8000a3a:	68db      	ldr	r3, [r3, #12]
 8000a3c:	4668      	mov	r0, sp
 8000a3e:	691b      	ldr	r3, [r3, #16]
 8000a40:	4798      	blx	r3
 8000a42:	9b00      	ldr	r3, [sp, #0]
 8000a44:	4604      	mov	r4, r0
 8000a46:	f8c6 30f4 	str.w	r3, [r6, #244]	; 0xf4
 8000a4a:	4629      	mov	r1, r5
 8000a4c:	220c      	movs	r2, #12
 8000a4e:	3008      	adds	r0, #8
 8000a50:	f004 fc42 	bl	80052d8 <memcpy>
 8000a54:	f242 63e8 	movw	r3, #9960	; 0x26e8
 8000a58:	6027      	str	r7, [r4, #0]
 8000a5a:	6063      	str	r3, [r4, #4]
 8000a5c:	b004      	add	sp, #16
 8000a5e:	e8bd 81f0 	ldmia.w	sp!, {r4, r5, r6, r7, r8, pc}
 8000a62:	bf00      	nop
 8000a64:	20000118 	.word	0x20000118
 8000a68:	2000000c 	.word	0x2000000c
 8000a6c:	08005888 	.word	0x08005888

08000a70 <kstdlib_add_pool>:
 8000a70:	b570      	push	{r4, r5, r6, lr}
 8000a72:	4604      	mov	r4, r0
 8000a74:	460e      	mov	r6, r1
 8000a76:	2500      	movs	r5, #0
 8000a78:	4b12      	ldr	r3, [pc, #72]	; (8000ac4 <kstdlib_add_pool+0x54>)
 8000a7a:	f8d3 00f4 	ldr.w	r0, [r3, #244]	; 0xf4
 8000a7e:	f000 f82f 	bl	8000ae0 <karray_size_internal>
 8000a82:	4285      	cmp	r5, r0
 8000a84:	d212      	bcs.n	8000aac <kstdlib_add_pool+0x3c>
 8000a86:	4628      	mov	r0, r5
 8000a88:	f7ff fed2 	bl	8000830 <kpool_at>
 8000a8c:	6801      	ldr	r1, [r0, #0]
 8000a8e:	428c      	cmp	r4, r1
 8000a90:	d30a      	bcc.n	8000aa8 <kstdlib_add_pool+0x38>
 8000a92:	6843      	ldr	r3, [r0, #4]
 8000a94:	19a2      	adds	r2, r4, r6
 8000a96:	440b      	add	r3, r1
 8000a98:	429a      	cmp	r2, r3
 8000a9a:	d805      	bhi.n	8000aa8 <kstdlib_add_pool+0x38>
 8000a9c:	f06f 0005 	mvn.w	r0, #5
 8000aa0:	e8bd 4070 	ldmia.w	sp!, {r4, r5, r6, lr}
 8000aa4:	f004 b87f 	b.w	8004ba6 <error>
 8000aa8:	3501      	adds	r5, #1
 8000aaa:	e7e5      	b.n	8000a78 <kstdlib_add_pool+0x8>
 8000aac:	b672      	cpsid	i
 8000aae:	4806      	ldr	r0, [pc, #24]	; (8000ac8 <kstdlib_add_pool+0x58>)
 8000ab0:	f000 f820 	bl	8000af4 <karray_append>
 8000ab4:	4621      	mov	r1, r4
 8000ab6:	e880 0050 	stmia.w	r0, {r4, r6}
 8000aba:	3008      	adds	r0, #8
 8000abc:	f001 fa6c 	bl	8001f98 <pool_init>
 8000ac0:	b662      	cpsie	i
 8000ac2:	bd70      	pop	{r4, r5, r6, pc}
 8000ac4:	2000000c 	.word	0x2000000c
 8000ac8:	20000100 	.word	0x20000100

08000acc <karray_at_internal>:
 8000acc:	f04f 5300 	mov.w	r3, #536870912	; 0x20000000
 8000ad0:	689b      	ldr	r3, [r3, #8]
 8000ad2:	460a      	mov	r2, r1
 8000ad4:	68db      	ldr	r3, [r3, #12]
 8000ad6:	4901      	ldr	r1, [pc, #4]	; (8000adc <karray_at_internal+0x10>)
 8000ad8:	689b      	ldr	r3, [r3, #8]
 8000ada:	4718      	bx	r3
 8000adc:	08005894 	.word	0x08005894

08000ae0 <karray_size_internal>:
 8000ae0:	f04f 5300 	mov.w	r3, #536870912	; 0x20000000
 8000ae4:	689b      	ldr	r3, [r3, #8]
 8000ae6:	4902      	ldr	r1, [pc, #8]	; (8000af0 <karray_size_internal+0x10>)
 8000ae8:	68db      	ldr	r3, [r3, #12]
 8000aea:	68db      	ldr	r3, [r3, #12]
 8000aec:	4718      	bx	r3
 8000aee:	bf00      	nop
 8000af0:	08005894 	.word	0x08005894

08000af4 <karray_append>:
 8000af4:	f04f 5300 	mov.w	r3, #536870912	; 0x20000000
 8000af8:	689b      	ldr	r3, [r3, #8]
 8000afa:	4902      	ldr	r1, [pc, #8]	; (8000b04 <karray_append+0x10>)
 8000afc:	68db      	ldr	r3, [r3, #12]
 8000afe:	691b      	ldr	r3, [r3, #16]
 8000b00:	4718      	bx	r3
 8000b02:	bf00      	nop
 8000b04:	08005894 	.word	0x08005894

08000b08 <kirq_stub>:
 8000b08:	4601      	mov	r1, r0
 8000b0a:	4801      	ldr	r0, [pc, #4]	; (8000b10 <kirq_stub+0x8>)
 8000b0c:	f7ff be3c 	b.w	8000788 <printk>
 8000b10:	080058a0 	.word	0x080058a0

08000b14 <kirq_init>:
 8000b14:	4b05      	ldr	r3, [pc, #20]	; (8000b2c <kirq_init+0x18>)
 8000b16:	4a06      	ldr	r2, [pc, #24]	; (8000b30 <kirq_init+0x1c>)
 8000b18:	f843 2f04 	str.w	r2, [r3, #4]!
 8000b1c:	4a05      	ldr	r2, [pc, #20]	; (8000b34 <kirq_init+0x20>)
 8000b1e:	4293      	cmp	r3, r2
 8000b20:	d1f9      	bne.n	8000b16 <kirq_init+0x2>
 8000b22:	4b05      	ldr	r3, [pc, #20]	; (8000b38 <kirq_init+0x24>)
 8000b24:	f04f 32ff 	mov.w	r2, #4294967295
 8000b28:	619a      	str	r2, [r3, #24]
 8000b2a:	4770      	bx	lr
 8000b2c:	20000024 	.word	0x20000024
 8000b30:	080058c4 	.word	0x080058c4
 8000b34:	200000d8 	.word	0x200000d8
 8000b38:	2000000c 	.word	0x2000000c

08000b3c <kirq_enter>:
 8000b3c:	b5f8      	push	{r3, r4, r5, r6, r7, lr}
 8000b3e:	4c08      	ldr	r4, [pc, #32]	; (8000b60 <kirq_enter+0x24>)
 8000b40:	f04f 5500 	mov.w	r5, #536870912	; 0x20000000
 8000b44:	eb04 0380 	add.w	r3, r4, r0, lsl #2
 8000b48:	69db      	ldr	r3, [r3, #28]
 8000b4a:	69a7      	ldr	r7, [r4, #24]
 8000b4c:	682e      	ldr	r6, [r5, #0]
 8000b4e:	61a0      	str	r0, [r4, #24]
 8000b50:	602b      	str	r3, [r5, #0]
 8000b52:	685a      	ldr	r2, [r3, #4]
 8000b54:	6899      	ldr	r1, [r3, #8]
 8000b56:	4790      	blx	r2
 8000b58:	61a7      	str	r7, [r4, #24]
 8000b5a:	602e      	str	r6, [r5, #0]
 8000b5c:	bdf8      	pop	{r3, r4, r5, r6, r7, pc}
 8000b5e:	bf00      	nop
 8000b60:	2000000c 	.word	0x2000000c

08000b64 <kirq_register>:
 8000b64:	292c      	cmp	r1, #44	; 0x2c
 8000b66:	b5f8      	push	{r3, r4, r5, r6, r7, lr}
 8000b68:	4605      	mov	r5, r0
 8000b6a:	4617      	mov	r7, r2
 8000b6c:	461e      	mov	r6, r3
 8000b6e:	dd02      	ble.n	8000b76 <kirq_register+0x12>
 8000b70:	f06f 000a 	mvn.w	r0, #10
 8000b74:	e009      	b.n	8000b8a <kirq_register+0x26>
 8000b76:	0089      	lsls	r1, r1, #2
 8000b78:	f101 5400 	add.w	r4, r1, #536870912	; 0x20000000
 8000b7c:	340c      	adds	r4, #12
 8000b7e:	69e2      	ldr	r2, [r4, #28]
 8000b80:	4b09      	ldr	r3, [pc, #36]	; (8000ba8 <kirq_register+0x44>)
 8000b82:	429a      	cmp	r2, r3
 8000b84:	d005      	beq.n	8000b92 <kirq_register+0x2e>
 8000b86:	f06f 0005 	mvn.w	r0, #5
 8000b8a:	e8bd 40f8 	ldmia.w	sp!, {r3, r4, r5, r6, r7, lr}
 8000b8e:	f004 b80a 	b.w	8004ba6 <error>
 8000b92:	2010      	movs	r0, #16
 8000b94:	f7ff ff29 	bl	80009ea <kmalloc>
 8000b98:	61e0      	str	r0, [r4, #28]
 8000b9a:	b120      	cbz	r0, 8000ba6 <kirq_register+0x42>
 8000b9c:	2300      	movs	r3, #0
 8000b9e:	e880 0088 	stmia.w	r0, {r3, r7}
 8000ba2:	6086      	str	r6, [r0, #8]
 8000ba4:	60c5      	str	r5, [r0, #12]
 8000ba6:	bdf8      	pop	{r3, r4, r5, r6, r7, pc}
 8000ba8:	080058c4 	.word	0x080058c4

08000bac <kirq_unregister>:
 8000bac:	0089      	lsls	r1, r1, #2
 8000bae:	b510      	push	{r4, lr}
 8000bb0:	f101 5400 	add.w	r4, r1, #536870912	; 0x20000000
 8000bb4:	340c      	adds	r4, #12
 8000bb6:	69e3      	ldr	r3, [r4, #28]
 8000bb8:	68da      	ldr	r2, [r3, #12]
 8000bba:	4282      	cmp	r2, r0
 8000bbc:	d005      	beq.n	8000bca <kirq_unregister+0x1e>
 8000bbe:	e8bd 4010 	ldmia.w	sp!, {r4, lr}
 8000bc2:	f06f 000b 	mvn.w	r0, #11
 8000bc6:	f003 bfee 	b.w	8004ba6 <error>
 8000bca:	4618      	mov	r0, r3
 8000bcc:	f7ff ff13 	bl	80009f6 <kfree>
 8000bd0:	4b01      	ldr	r3, [pc, #4]	; (8000bd8 <kirq_unregister+0x2c>)
 8000bd2:	61e3      	str	r3, [r4, #28]
 8000bd4:	bd10      	pop	{r4, pc}
 8000bd6:	bf00      	nop
 8000bd8:	080058c4 	.word	0x080058c4

08000bdc <dlist_add_tail>:
 8000bdc:	6803      	ldr	r3, [r0, #0]
 8000bde:	b91b      	cbnz	r3, 8000be8 <dlist_add_tail+0xc>
 8000be0:	6001      	str	r1, [r0, #0]
 8000be2:	6009      	str	r1, [r1, #0]
 8000be4:	6049      	str	r1, [r1, #4]
 8000be6:	4770      	bx	lr
 8000be8:	604b      	str	r3, [r1, #4]
 8000bea:	6803      	ldr	r3, [r0, #0]
 8000bec:	681b      	ldr	r3, [r3, #0]
 8000bee:	600b      	str	r3, [r1, #0]
 8000bf0:	6803      	ldr	r3, [r0, #0]
 8000bf2:	681b      	ldr	r3, [r3, #0]
 8000bf4:	6059      	str	r1, [r3, #4]
 8000bf6:	6803      	ldr	r3, [r0, #0]
 8000bf8:	6019      	str	r1, [r3, #0]
 8000bfa:	4770      	bx	lr

08000bfc <dlist_remove_head>:
 8000bfc:	6803      	ldr	r3, [r0, #0]
 8000bfe:	685a      	ldr	r2, [r3, #4]
 8000c00:	429a      	cmp	r2, r3
 8000c02:	bf17      	itett	ne
 8000c04:	681b      	ldrne	r3, [r3, #0]
 8000c06:	2300      	moveq	r3, #0
 8000c08:	6013      	strne	r3, [r2, #0]
 8000c0a:	6803      	ldrne	r3, [r0, #0]
 8000c0c:	bf1f      	itttt	ne
 8000c0e:	685a      	ldrne	r2, [r3, #4]
 8000c10:	681b      	ldrne	r3, [r3, #0]
 8000c12:	605a      	strne	r2, [r3, #4]
 8000c14:	6803      	ldrne	r3, [r0, #0]
 8000c16:	bf18      	it	ne
 8000c18:	685b      	ldrne	r3, [r3, #4]
 8000c1a:	6003      	str	r3, [r0, #0]
 8000c1c:	4770      	bx	lr

08000c1e <dlist_remove>:
 8000c1e:	b538      	push	{r3, r4, r5, lr}
 8000c20:	6805      	ldr	r5, [r0, #0]
 8000c22:	4604      	mov	r4, r0
 8000c24:	428d      	cmp	r5, r1
 8000c26:	d103      	bne.n	8000c30 <dlist_remove+0x12>
 8000c28:	e8bd 4038 	ldmia.w	sp!, {r3, r4, r5, lr}
 8000c2c:	f7ff bfe6 	b.w	8000bfc <dlist_remove_head>
 8000c30:	6001      	str	r1, [r0, #0]
 8000c32:	f7ff ffe3 	bl	8000bfc <dlist_remove_head>
 8000c36:	6025      	str	r5, [r4, #0]
 8000c38:	bd38      	pop	{r3, r4, r5, pc}

08000c3a <dlist_enum>:
 8000c3a:	4603      	mov	r3, r0
 8000c3c:	7a00      	ldrb	r0, [r0, #8]
 8000c3e:	b148      	cbz	r0, 8000c54 <dlist_enum+0x1a>
 8000c40:	685a      	ldr	r2, [r3, #4]
 8000c42:	600a      	str	r2, [r1, #0]
 8000c44:	685a      	ldr	r2, [r3, #4]
 8000c46:	6819      	ldr	r1, [r3, #0]
 8000c48:	6852      	ldr	r2, [r2, #4]
 8000c4a:	605a      	str	r2, [r3, #4]
 8000c4c:	1a52      	subs	r2, r2, r1
 8000c4e:	bf18      	it	ne
 8000c50:	2201      	movne	r2, #1
 8000c52:	721a      	strb	r2, [r3, #8]
 8000c54:	4770      	bx	lr
 8000c56:	0000      	movs	r0, r0

08000c58 <dlist_add_head.constprop.2>:
 8000c58:	4b08      	ldr	r3, [pc, #32]	; (8000c7c <dlist_add_head.constprop.2+0x24>)
 8000c5a:	681a      	ldr	r2, [r3, #0]
 8000c5c:	b912      	cbnz	r2, 8000c64 <dlist_add_head.constprop.2+0xc>
 8000c5e:	6000      	str	r0, [r0, #0]
 8000c60:	6040      	str	r0, [r0, #4]
 8000c62:	e008      	b.n	8000c76 <dlist_add_head.constprop.2+0x1e>
 8000c64:	6042      	str	r2, [r0, #4]
 8000c66:	681a      	ldr	r2, [r3, #0]
 8000c68:	6812      	ldr	r2, [r2, #0]
 8000c6a:	6002      	str	r2, [r0, #0]
 8000c6c:	681a      	ldr	r2, [r3, #0]
 8000c6e:	6812      	ldr	r2, [r2, #0]
 8000c70:	6050      	str	r0, [r2, #4]
 8000c72:	681b      	ldr	r3, [r3, #0]
 8000c74:	6018      	str	r0, [r3, #0]
 8000c76:	4b01      	ldr	r3, [pc, #4]	; (8000c7c <dlist_add_head.constprop.2+0x24>)
 8000c78:	6018      	str	r0, [r3, #0]
 8000c7a:	4770      	bx	lr
 8000c7c:	20000014 	.word	0x20000014

08000c80 <kprocess_add_to_active_list>:
 8000c80:	b57f      	push	{r0, r1, r2, r3, r4, r5, r6, lr}
 8000c82:	4604      	mov	r4, r0
 8000c84:	4e24      	ldr	r6, [pc, #144]	; (8000d18 <kprocess_add_to_active_list+0x98>)
 8000c86:	3044      	adds	r0, #68	; 0x44
 8000c88:	f000 fb80 	bl	800138c <ksystime_get_uptime_internal>
 8000c8c:	4823      	ldr	r0, [pc, #140]	; (8000d1c <kprocess_add_to_active_list+0x9c>)
 8000c8e:	4621      	mov	r1, r4
 8000c90:	f7ff ffc5 	bl	8000c1e <dlist_remove>
 8000c94:	68b5      	ldr	r5, [r6, #8]
 8000c96:	b935      	cbnz	r5, 8000ca6 <kprocess_add_to_active_list+0x26>
 8000c98:	4620      	mov	r0, r4
 8000c9a:	f7ff ffdd 	bl	8000c58 <dlist_add_head.constprop.2>
 8000c9e:	6074      	str	r4, [r6, #4]
 8000ca0:	f7ff fac7 	bl	8000232 <pend_switch_context>
 8000ca4:	e035      	b.n	8000d12 <kprocess_add_to_active_list+0x92>
 8000ca6:	69a2      	ldr	r2, [r4, #24]
 8000ca8:	69ab      	ldr	r3, [r5, #24]
 8000caa:	429a      	cmp	r2, r3
 8000cac:	d209      	bcs.n	8000cc2 <kprocess_add_to_active_list+0x42>
 8000cae:	481c      	ldr	r0, [pc, #112]	; (8000d20 <kprocess_add_to_active_list+0xa0>)
 8000cb0:	f7ff ffa4 	bl	8000bfc <dlist_remove_head>
 8000cb4:	4620      	mov	r0, r4
 8000cb6:	f7ff ffcf 	bl	8000c58 <dlist_add_head.constprop.2>
 8000cba:	6074      	str	r4, [r6, #4]
 8000cbc:	f7ff fab9 	bl	8000232 <pend_switch_context>
 8000cc0:	462c      	mov	r4, r5
 8000cc2:	4b17      	ldr	r3, [pc, #92]	; (8000d20 <kprocess_add_to_active_list+0xa0>)
 8000cc4:	681a      	ldr	r2, [r3, #0]
 8000cc6:	9201      	str	r2, [sp, #4]
 8000cc8:	681a      	ldr	r2, [r3, #0]
 8000cca:	9202      	str	r2, [sp, #8]
 8000ccc:	681b      	ldr	r3, [r3, #0]
 8000cce:	3300      	adds	r3, #0
 8000cd0:	bf18      	it	ne
 8000cd2:	2301      	movne	r3, #1
 8000cd4:	f88d 300c 	strb.w	r3, [sp, #12]
 8000cd8:	a801      	add	r0, sp, #4
 8000cda:	4669      	mov	r1, sp
 8000cdc:	f7ff ffad 	bl	8000c3a <dlist_enum>
 8000ce0:	b198      	cbz	r0, 8000d0a <kprocess_add_to_active_list+0x8a>
 8000ce2:	9b00      	ldr	r3, [sp, #0]
 8000ce4:	69a1      	ldr	r1, [r4, #24]
 8000ce6:	699a      	ldr	r2, [r3, #24]
 8000ce8:	4291      	cmp	r1, r2
 8000cea:	d2f5      	bcs.n	8000cd8 <kprocess_add_to_active_list+0x58>
 8000cec:	4a0c      	ldr	r2, [pc, #48]	; (8000d20 <kprocess_add_to_active_list+0xa0>)
 8000cee:	6812      	ldr	r2, [r2, #0]
 8000cf0:	4293      	cmp	r3, r2
 8000cf2:	d103      	bne.n	8000cfc <kprocess_add_to_active_list+0x7c>
 8000cf4:	4620      	mov	r0, r4
 8000cf6:	f7ff ffaf 	bl	8000c58 <dlist_add_head.constprop.2>
 8000cfa:	e00a      	b.n	8000d12 <kprocess_add_to_active_list+0x92>
 8000cfc:	681a      	ldr	r2, [r3, #0]
 8000cfe:	6063      	str	r3, [r4, #4]
 8000d00:	6022      	str	r2, [r4, #0]
 8000d02:	681a      	ldr	r2, [r3, #0]
 8000d04:	6054      	str	r4, [r2, #4]
 8000d06:	601c      	str	r4, [r3, #0]
 8000d08:	e003      	b.n	8000d12 <kprocess_add_to_active_list+0x92>
 8000d0a:	4805      	ldr	r0, [pc, #20]	; (8000d20 <kprocess_add_to_active_list+0xa0>)
 8000d0c:	4621      	mov	r1, r4
 8000d0e:	f7ff ff65 	bl	8000bdc <dlist_add_tail>
 8000d12:	b004      	add	sp, #16
 8000d14:	bd70      	pop	{r4, r5, r6, pc}
 8000d16:	bf00      	nop
 8000d18:	2000000c 	.word	0x2000000c
 8000d1c:	20000018 	.word	0x20000018
 8000d20:	20000014 	.word	0x20000014

08000d24 <kprocess_remove_from_active_list>:
 8000d24:	b537      	push	{r0, r1, r2, r4, r5, lr}
 8000d26:	4604      	mov	r4, r0
 8000d28:	4d11      	ldr	r5, [pc, #68]	; (8000d70 <kprocess_remove_from_active_list+0x4c>)
 8000d2a:	4812      	ldr	r0, [pc, #72]	; (8000d74 <kprocess_remove_from_active_list+0x50>)
 8000d2c:	68ab      	ldr	r3, [r5, #8]
 8000d2e:	429c      	cmp	r4, r3
 8000d30:	d106      	bne.n	8000d40 <kprocess_remove_from_active_list+0x1c>
 8000d32:	f7ff ff63 	bl	8000bfc <dlist_remove_head>
 8000d36:	68ab      	ldr	r3, [r5, #8]
 8000d38:	606b      	str	r3, [r5, #4]
 8000d3a:	f7ff fa7a 	bl	8000232 <pend_switch_context>
 8000d3e:	e002      	b.n	8000d46 <kprocess_remove_from_active_list+0x22>
 8000d40:	4621      	mov	r1, r4
 8000d42:	f7ff ff6c 	bl	8000c1e <dlist_remove>
 8000d46:	4621      	mov	r1, r4
 8000d48:	480b      	ldr	r0, [pc, #44]	; (8000d78 <kprocess_remove_from_active_list+0x54>)
 8000d4a:	f7ff ff47 	bl	8000bdc <dlist_add_tail>
 8000d4e:	4668      	mov	r0, sp
 8000d50:	f000 fb1c 	bl	800138c <ksystime_get_uptime_internal>
 8000d54:	f104 0044 	add.w	r0, r4, #68	; 0x44
 8000d58:	4669      	mov	r1, sp
 8000d5a:	466a      	mov	r2, sp
 8000d5c:	f003 ffa1 	bl	8004ca2 <systime_sub>
 8000d60:	f104 013c 	add.w	r1, r4, #60	; 0x3c
 8000d64:	4668      	mov	r0, sp
 8000d66:	460a      	mov	r2, r1
 8000d68:	f003 ff95 	bl	8004c96 <systime_add>
 8000d6c:	b003      	add	sp, #12
 8000d6e:	bd30      	pop	{r4, r5, pc}
 8000d70:	2000000c 	.word	0x2000000c
 8000d74:	20000014 	.word	0x20000014
 8000d78:	20000018 	.word	0x20000018

08000d7c <kprocess_wakeup>:
 8000d7c:	6943      	ldr	r3, [r0, #20]
 8000d7e:	b510      	push	{r4, lr}
 8000d80:	079b      	lsls	r3, r3, #30
 8000d82:	4604      	mov	r4, r0
 8000d84:	d513      	bpl.n	8000dae <kprocess_wakeup+0x32>
 8000d86:	301c      	adds	r0, #28
 8000d88:	f000 fc3c 	bl	8001604 <ksystime_timer_stop_internal>
 8000d8c:	6963      	ldr	r3, [r4, #20]
 8000d8e:	f023 02f0 	bic.w	r2, r3, #240	; 0xf0
 8000d92:	f003 0303 	and.w	r3, r3, #3
 8000d96:	2b02      	cmp	r3, #2
 8000d98:	6162      	str	r2, [r4, #20]
 8000d9a:	d004      	beq.n	8000da6 <kprocess_wakeup+0x2a>
 8000d9c:	2b03      	cmp	r3, #3
 8000d9e:	d106      	bne.n	8000dae <kprocess_wakeup+0x32>
 8000da0:	4620      	mov	r0, r4
 8000da2:	f7ff ff6d 	bl	8000c80 <kprocess_add_to_active_list>
 8000da6:	6963      	ldr	r3, [r4, #20]
 8000da8:	f023 0302 	bic.w	r3, r3, #2
 8000dac:	6163      	str	r3, [r4, #20]
 8000dae:	bd10      	pop	{r4, pc}

08000db0 <kprocess_timeout>:
 8000db0:	b508      	push	{r3, lr}
 8000db2:	b672      	cpsid	i
 8000db4:	6943      	ldr	r3, [r0, #20]
 8000db6:	079b      	lsls	r3, r3, #30
 8000db8:	d501      	bpl.n	8000dbe <kprocess_timeout+0xe>
 8000dba:	f7ff ffdf 	bl	8000d7c <kprocess_wakeup>
 8000dbe:	b662      	cpsie	i
 8000dc0:	bd08      	pop	{r3, pc}
 8000dc2:	0000      	movs	r0, r0

08000dc4 <kprocess_create>:
 8000dc4:	b570      	push	{r4, r5, r6, lr}
 8000dc6:	4605      	mov	r5, r0
 8000dc8:	2058      	movs	r0, #88	; 0x58
 8000dca:	f7ff fe0e 	bl	80009ea <kmalloc>
 8000dce:	4604      	mov	r4, r0
 8000dd0:	2800      	cmp	r0, #0
 8000dd2:	d060      	beq.n	8000e96 <kprocess_create+0xd2>
 8000dd4:	2100      	movs	r1, #0
 8000dd6:	2258      	movs	r2, #88	; 0x58
 8000dd8:	f004 fb58 	bl	800548c <memset>
 8000ddc:	68eb      	ldr	r3, [r5, #12]
 8000dde:	01d9      	lsls	r1, r3, #7
 8000de0:	d404      	bmi.n	8000dec <kprocess_create+0x28>
 8000de2:	6828      	ldr	r0, [r5, #0]
 8000de4:	f004 fbfe 	bl	80055e4 <strlen>
 8000de8:	30b5      	adds	r0, #181	; 0xb5
 8000dea:	e000      	b.n	8000dee <kprocess_create+0x2a>
 8000dec:	20b4      	movs	r0, #180	; 0xb4
 8000dee:	3003      	adds	r0, #3
 8000df0:	f020 0603 	bic.w	r6, r0, #3
 8000df4:	6868      	ldr	r0, [r5, #4]
 8000df6:	4430      	add	r0, r6
 8000df8:	f7ff fdf7 	bl	80009ea <kmalloc>
 8000dfc:	60a0      	str	r0, [r4, #8]
 8000dfe:	2800      	cmp	r0, #0
 8000e00:	d046      	beq.n	8000e90 <kprocess_create+0xcc>
 8000e02:	686a      	ldr	r2, [r5, #4]
 8000e04:	21cd      	movs	r1, #205	; 0xcd
 8000e06:	4432      	add	r2, r6
 8000e08:	f004 fb40 	bl	800548c <memset>
 8000e0c:	2300      	movs	r3, #0
 8000e0e:	6163      	str	r3, [r4, #20]
 8000e10:	68ab      	ldr	r3, [r5, #8]
 8000e12:	68a2      	ldr	r2, [r4, #8]
 8000e14:	61a3      	str	r3, [r4, #24]
 8000e16:	686b      	ldr	r3, [r5, #4]
 8000e18:	f104 001c 	add.w	r0, r4, #28
 8000e1c:	4413      	add	r3, r2
 8000e1e:	4433      	add	r3, r6
 8000e20:	4622      	mov	r2, r4
 8000e22:	60e3      	str	r3, [r4, #12]
 8000e24:	491d      	ldr	r1, [pc, #116]	; (8000e9c <kprocess_create+0xd8>)
 8000e26:	f000 fc03 	bl	8001630 <ksystime_timer_init_internal>
 8000e2a:	686b      	ldr	r3, [r5, #4]
 8000e2c:	4620      	mov	r0, r4
 8000e2e:	4433      	add	r3, r6
 8000e30:	6123      	str	r3, [r4, #16]
 8000e32:	f000 fc45 	bl	80016c0 <kipc_init>
 8000e36:	68a0      	ldr	r0, [r4, #8]
 8000e38:	f04f 33ff 	mov.w	r3, #4294967295
 8000e3c:	6143      	str	r3, [r0, #20]
 8000e3e:	6103      	str	r3, [r0, #16]
 8000e40:	68eb      	ldr	r3, [r5, #12]
 8000e42:	01da      	lsls	r2, r3, #7
 8000e44:	d502      	bpl.n	8000e4c <kprocess_create+0x88>
 8000e46:	682b      	ldr	r3, [r5, #0]
 8000e48:	6183      	str	r3, [r0, #24]
 8000e4a:	e007      	b.n	8000e5c <kprocess_create+0x98>
 8000e4c:	30b4      	adds	r0, #180	; 0xb4
 8000e4e:	6829      	ldr	r1, [r5, #0]
 8000e50:	f004 fb6a 	bl	8005528 <strcpy>
 8000e54:	68a3      	ldr	r3, [r4, #8]
 8000e56:	f103 02b4 	add.w	r2, r3, #180	; 0xb4
 8000e5a:	619a      	str	r2, [r3, #24]
 8000e5c:	68a1      	ldr	r1, [r4, #8]
 8000e5e:	1d08      	adds	r0, r1, #4
 8000e60:	4431      	add	r1, r6
 8000e62:	f001 f899 	bl	8001f98 <pool_init>
 8000e66:	4620      	mov	r0, r4
 8000e68:	6929      	ldr	r1, [r5, #16]
 8000e6a:	f7ff f9e6 	bl	800023a <process_setup_context>
 8000e6e:	480c      	ldr	r0, [pc, #48]	; (8000ea0 <kprocess_create+0xdc>)
 8000e70:	4621      	mov	r1, r4
 8000e72:	f7ff feb3 	bl	8000bdc <dlist_add_tail>
 8000e76:	68eb      	ldr	r3, [r5, #12]
 8000e78:	07db      	lsls	r3, r3, #31
 8000e7a:	d50c      	bpl.n	8000e96 <kprocess_create+0xd2>
 8000e7c:	6963      	ldr	r3, [r4, #20]
 8000e7e:	f043 0301 	orr.w	r3, r3, #1
 8000e82:	6163      	str	r3, [r4, #20]
 8000e84:	b672      	cpsid	i
 8000e86:	4620      	mov	r0, r4
 8000e88:	f7ff fefa 	bl	8000c80 <kprocess_add_to_active_list>
 8000e8c:	b662      	cpsie	i
 8000e8e:	e002      	b.n	8000e96 <kprocess_create+0xd2>
 8000e90:	4620      	mov	r0, r4
 8000e92:	f7ff fdb0 	bl	80009f6 <kfree>
 8000e96:	4620      	mov	r0, r4
 8000e98:	bd70      	pop	{r4, r5, r6, pc}
 8000e9a:	bf00      	nop
 8000e9c:	08000db1 	.word	0x08000db1
 8000ea0:	20000018 	.word	0x20000018

08000ea4 <kprocess_get_flags>:
 8000ea4:	6940      	ldr	r0, [r0, #20]
 8000ea6:	4770      	bx	lr

08000ea8 <kprocess_set_flags>:
 8000ea8:	b510      	push	{r4, lr}
 8000eaa:	4604      	mov	r4, r0
 8000eac:	b672      	cpsid	i
 8000eae:	f011 0f01 	tst.w	r1, #1
 8000eb2:	6943      	ldr	r3, [r0, #20]
 8000eb4:	d00b      	beq.n	8000ece <kprocess_set_flags+0x26>
 8000eb6:	f013 0303 	ands.w	r3, r3, #3
 8000eba:	d002      	beq.n	8000ec2 <kprocess_set_flags+0x1a>
 8000ebc:	2b02      	cmp	r3, #2
 8000ebe:	d002      	beq.n	8000ec6 <kprocess_set_flags+0x1e>
 8000ec0:	e012      	b.n	8000ee8 <kprocess_set_flags+0x40>
 8000ec2:	f7ff fedd 	bl	8000c80 <kprocess_add_to_active_list>
 8000ec6:	6963      	ldr	r3, [r4, #20]
 8000ec8:	f043 0301 	orr.w	r3, r3, #1
 8000ecc:	e00b      	b.n	8000ee6 <kprocess_set_flags+0x3e>
 8000ece:	f003 0303 	and.w	r3, r3, #3
 8000ed2:	2b01      	cmp	r3, #1
 8000ed4:	d002      	beq.n	8000edc <kprocess_set_flags+0x34>
 8000ed6:	2b03      	cmp	r3, #3
 8000ed8:	d002      	beq.n	8000ee0 <kprocess_set_flags+0x38>
 8000eda:	e005      	b.n	8000ee8 <kprocess_set_flags+0x40>
 8000edc:	f7ff ff22 	bl	8000d24 <kprocess_remove_from_active_list>
 8000ee0:	6963      	ldr	r3, [r4, #20]
 8000ee2:	f023 0301 	bic.w	r3, r3, #1
 8000ee6:	6163      	str	r3, [r4, #20]
 8000ee8:	b662      	cpsie	i
 8000eea:	bd10      	pop	{r4, pc}

08000eec <kprocess_set_priority>:
 8000eec:	b510      	push	{r4, lr}
 8000eee:	4604      	mov	r4, r0
 8000ef0:	b672      	cpsid	i
 8000ef2:	6983      	ldr	r3, [r0, #24]
 8000ef4:	428b      	cmp	r3, r1
 8000ef6:	d00a      	beq.n	8000f0e <kprocess_set_priority+0x22>
 8000ef8:	6943      	ldr	r3, [r0, #20]
 8000efa:	6181      	str	r1, [r0, #24]
 8000efc:	f003 0303 	and.w	r3, r3, #3
 8000f00:	2b01      	cmp	r3, #1
 8000f02:	d104      	bne.n	8000f0e <kprocess_set_priority+0x22>
 8000f04:	f7ff ff0e 	bl	8000d24 <kprocess_remove_from_active_list>
 8000f08:	4620      	mov	r0, r4
 8000f0a:	f7ff feb9 	bl	8000c80 <kprocess_add_to_active_list>
 8000f0e:	b662      	cpsie	i
 8000f10:	bd10      	pop	{r4, pc}

08000f12 <kprocess_get_priority>:
 8000f12:	6980      	ldr	r0, [r0, #24]
 8000f14:	4770      	bx	lr

08000f16 <kprocess_name>:
 8000f16:	6883      	ldr	r3, [r0, #8]
 8000f18:	6998      	ldr	r0, [r3, #24]
 8000f1a:	4770      	bx	lr

08000f1c <kprocess_destroy>:
 8000f1c:	1c42      	adds	r2, r0, #1
 8000f1e:	b510      	push	{r4, lr}
 8000f20:	4604      	mov	r4, r0
 8000f22:	d030      	beq.n	8000f86 <kprocess_destroy+0x6a>
 8000f24:	b672      	cpsid	i
 8000f26:	6943      	ldr	r3, [r0, #20]
 8000f28:	f003 0303 	and.w	r3, r3, #3
 8000f2c:	2b01      	cmp	r3, #1
 8000f2e:	d107      	bne.n	8000f40 <kprocess_destroy+0x24>
 8000f30:	f7ff fef8 	bl	8000d24 <kprocess_remove_from_active_list>
 8000f34:	4b14      	ldr	r3, [pc, #80]	; (8000f88 <kprocess_destroy+0x6c>)
 8000f36:	681a      	ldr	r2, [r3, #0]
 8000f38:	42a2      	cmp	r2, r4
 8000f3a:	bf04      	itt	eq
 8000f3c:	2200      	moveq	r2, #0
 8000f3e:	601a      	streq	r2, [r3, #0]
 8000f40:	6963      	ldr	r3, [r4, #20]
 8000f42:	079b      	lsls	r3, r3, #30
 8000f44:	d512      	bpl.n	8000f6c <kprocess_destroy+0x50>
 8000f46:	f104 001c 	add.w	r0, r4, #28
 8000f4a:	f000 fb5b 	bl	8001604 <ksystime_timer_stop_internal>
 8000f4e:	6963      	ldr	r3, [r4, #20]
 8000f50:	f003 03f0 	and.w	r3, r3, #240	; 0xf0
 8000f54:	2b40      	cmp	r3, #64	; 0x40
 8000f56:	d006      	beq.n	8000f66 <kprocess_destroy+0x4a>
 8000f58:	2b50      	cmp	r3, #80	; 0x50
 8000f5a:	d107      	bne.n	8000f6c <kprocess_destroy+0x50>
 8000f5c:	6ba0      	ldr	r0, [r4, #56]	; 0x38
 8000f5e:	4621      	mov	r1, r4
 8000f60:	f000 fcf3 	bl	800194a <kstream_lock_release>
 8000f64:	e002      	b.n	8000f6c <kprocess_destroy+0x50>
 8000f66:	4620      	mov	r0, r4
 8000f68:	f000 fbb5 	bl	80016d6 <kipc_lock_release>
 8000f6c:	4807      	ldr	r0, [pc, #28]	; (8000f8c <kprocess_destroy+0x70>)
 8000f6e:	4621      	mov	r1, r4
 8000f70:	f7ff fe55 	bl	8000c1e <dlist_remove>
 8000f74:	b662      	cpsie	i
 8000f76:	68a0      	ldr	r0, [r4, #8]
 8000f78:	f7ff fd3d 	bl	80009f6 <kfree>
 8000f7c:	4620      	mov	r0, r4
 8000f7e:	e8bd 4010 	ldmia.w	sp!, {r4, lr}
 8000f82:	f7ff bd38 	b.w	80009f6 <kfree>
 8000f86:	bd10      	pop	{r4, pc}
 8000f88:	2000000c 	.word	0x2000000c
 8000f8c:	20000018 	.word	0x20000018

08000f90 <kprocess_sleep>:
 8000f90:	b5f8      	push	{r3, r4, r5, r6, r7, lr}
 8000f92:	4606      	mov	r6, r0
 8000f94:	460d      	mov	r5, r1
 8000f96:	4614      	mov	r4, r2
 8000f98:	461f      	mov	r7, r3
 8000f9a:	b672      	cpsid	i
 8000f9c:	f7ff fec2 	bl	8000d24 <kprocess_remove_from_active_list>
 8000fa0:	6972      	ldr	r2, [r6, #20]
 8000fa2:	f044 0402 	orr.w	r4, r4, #2
 8000fa6:	4314      	orrs	r4, r2
 8000fa8:	6174      	str	r4, [r6, #20]
 8000faa:	63b7      	str	r7, [r6, #56]	; 0x38
 8000fac:	b662      	cpsie	i
 8000fae:	b155      	cbz	r5, 8000fc6 <kprocess_sleep+0x36>
 8000fb0:	682b      	ldr	r3, [r5, #0]
 8000fb2:	b90b      	cbnz	r3, 8000fb8 <kprocess_sleep+0x28>
 8000fb4:	686b      	ldr	r3, [r5, #4]
 8000fb6:	b133      	cbz	r3, 8000fc6 <kprocess_sleep+0x36>
 8000fb8:	f106 001c 	add.w	r0, r6, #28
 8000fbc:	4629      	mov	r1, r5
 8000fbe:	e8bd 40f8 	ldmia.w	sp!, {r3, r4, r5, r6, r7, lr}
 8000fc2:	f000 bac3 	b.w	800154c <ksystime_timer_start_internal>
 8000fc6:	bdf8      	pop	{r3, r4, r5, r6, r7, pc}

08000fc8 <kprocess_error>:
 8000fc8:	6883      	ldr	r3, [r0, #8]
 8000fca:	6019      	str	r1, [r3, #0]
 8000fcc:	4770      	bx	lr
 8000fce:	0000      	movs	r0, r0

08000fd0 <kprocess_get_current>:
 8000fd0:	4a06      	ldr	r2, [pc, #24]	; (8000fec <kprocess_get_current+0x1c>)
 8000fd2:	6993      	ldr	r3, [r2, #24]
 8000fd4:	2b00      	cmp	r3, #0
 8000fd6:	bfa1      	itttt	ge
 8000fd8:	009b      	lslge	r3, r3, #2
 8000fda:	f103 5300 	addge.w	r3, r3, #536870912	; 0x20000000
 8000fde:	3324      	addge	r3, #36	; 0x24
 8000fe0:	685b      	ldrge	r3, [r3, #4]
 8000fe2:	bfac      	ite	ge
 8000fe4:	68d8      	ldrge	r0, [r3, #12]
 8000fe6:	6810      	ldrlt	r0, [r2, #0]
 8000fe8:	4770      	bx	lr
 8000fea:	bf00      	nop
 8000fec:	2000000c 	.word	0x2000000c

08000ff0 <kprocess_abnormal_exit>:
 8000ff0:	b510      	push	{r4, lr}
 8000ff2:	f7ff ffed 	bl	8000fd0 <kprocess_get_current>
 8000ff6:	4604      	mov	r4, r0
 8000ff8:	6883      	ldr	r3, [r0, #8]
 8000ffa:	4804      	ldr	r0, [pc, #16]	; (800100c <kprocess_abnormal_exit+0x1c>)
 8000ffc:	6999      	ldr	r1, [r3, #24]
 8000ffe:	f7ff fbc3 	bl	8000788 <printk>
 8001002:	4620      	mov	r0, r4
 8001004:	e8bd 4010 	ldmia.w	sp!, {r4, lr}
 8001008:	f7ff bf88 	b.w	8000f1c <kprocess_destroy>
 800100c:	080058d4 	.word	0x080058d4

08001010 <kprocess_init>:
 8001010:	4a03      	ldr	r2, [pc, #12]	; (8001020 <kprocess_init+0x10>)
 8001012:	2300      	movs	r3, #0
 8001014:	6053      	str	r3, [r2, #4]
 8001016:	6013      	str	r3, [r2, #0]
 8001018:	6093      	str	r3, [r2, #8]
 800101a:	60d3      	str	r3, [r2, #12]
 800101c:	f7ff bed2 	b.w	8000dc4 <kprocess_create>
 8001020:	2000000c 	.word	0x2000000c

08001024 <kprocess_switch_test>:
 8001024:	b510      	push	{r4, lr}
 8001026:	f7ff ffd3 	bl	8000fd0 <kprocess_get_current>
 800102a:	4604      	mov	r4, r0
 800102c:	b672      	cpsid	i
 800102e:	f7ff fe79 	bl	8000d24 <kprocess_remove_from_active_list>
 8001032:	4620      	mov	r0, r4
 8001034:	f7ff fe24 	bl	8000c80 <kprocess_add_to_active_list>
 8001038:	b662      	cpsie	i
 800103a:	bd10      	pop	{r4, pc}

0800103c <process_stat>:
 800103c:	b570      	push	{r4, r5, r6, lr}
 800103e:	4604      	mov	r4, r0
 8001040:	b086      	sub	sp, #24
 8001042:	aa06      	add	r2, sp, #24
 8001044:	2300      	movs	r3, #0
 8001046:	f842 3d18 	str.w	r3, [r2, #-24]!
 800104a:	f04f 5300 	mov.w	r3, #536870912	; 0x20000000
 800104e:	681d      	ldr	r5, [r3, #0]
 8001050:	601a      	str	r2, [r3, #0]
 8001052:	689b      	ldr	r3, [r3, #8]
 8001054:	6880      	ldr	r0, [r0, #8]
 8001056:	681b      	ldr	r3, [r3, #0]
 8001058:	68e2      	ldr	r2, [r4, #12]
 800105a:	6a1b      	ldr	r3, [r3, #32]
 800105c:	3004      	adds	r0, #4
 800105e:	a901      	add	r1, sp, #4
 8001060:	4798      	blx	r3
 8001062:	68a3      	ldr	r3, [r4, #8]
 8001064:	4823      	ldr	r0, [pc, #140]	; (80010f4 <process_stat+0xb8>)
 8001066:	6999      	ldr	r1, [r3, #24]
 8001068:	f7ff fb8e 	bl	8000788 <printk>
 800106c:	69a1      	ldr	r1, [r4, #24]
 800106e:	4822      	ldr	r0, [pc, #136]	; (80010f8 <process_stat+0xbc>)
 8001070:	f7ff fb8a 	bl	8000788 <printk>
 8001074:	68a0      	ldr	r0, [r4, #8]
 8001076:	3004      	adds	r0, #4
 8001078:	f001 f96a 	bl	8002350 <pool_free_ptr>
 800107c:	68a1      	ldr	r1, [r4, #8]
 800107e:	6923      	ldr	r3, [r4, #16]
 8001080:	440b      	add	r3, r1
 8001082:	4298      	cmp	r0, r3
 8001084:	4601      	mov	r1, r0
 8001086:	d30d      	bcc.n	80010a4 <process_stat+0x68>
 8001088:	1a59      	subs	r1, r3, r1
 800108a:	481c      	ldr	r0, [pc, #112]	; (80010fc <process_stat+0xc0>)
 800108c:	f7ff fb7c 	bl	8000788 <printk>
 8001090:	481b      	ldr	r0, [pc, #108]	; (8001100 <process_stat+0xc4>)
 8001092:	6921      	ldr	r1, [r4, #16]
 8001094:	f7ff fb78 	bl	8000788 <printk>
 8001098:	9b00      	ldr	r3, [sp, #0]
 800109a:	b14b      	cbz	r3, 80010b0 <process_stat+0x74>
 800109c:	4819      	ldr	r0, [pc, #100]	; (8001104 <process_stat+0xc8>)
 800109e:	f7ff fb73 	bl	8000788 <printk>
 80010a2:	e010      	b.n	80010c6 <process_stat+0x8a>
 80010a4:	f850 2b04 	ldr.w	r2, [r0], #4
 80010a8:	f1b2 3fcd 	cmp.w	r2, #3452816845	; 0xcdcdcdcd
 80010ac:	d0e9      	beq.n	8001082 <process_stat+0x46>
 80010ae:	e7eb      	b.n	8001088 <process_stat+0x4c>
 80010b0:	4815      	ldr	r0, [pc, #84]	; (8001108 <process_stat+0xcc>)
 80010b2:	9904      	ldr	r1, [sp, #16]
 80010b4:	9a02      	ldr	r2, [sp, #8]
 80010b6:	f7ff fb67 	bl	8000788 <printk>
 80010ba:	4814      	ldr	r0, [pc, #80]	; (800110c <process_stat+0xd0>)
 80010bc:	9903      	ldr	r1, [sp, #12]
 80010be:	9a05      	ldr	r2, [sp, #20]
 80010c0:	9b01      	ldr	r3, [sp, #4]
 80010c2:	f7ff fb61 	bl	8000788 <printk>
 80010c6:	6be6      	ldr	r6, [r4, #60]	; 0x3c
 80010c8:	223c      	movs	r2, #60	; 0x3c
 80010ca:	fbb6 f1f2 	udiv	r1, r6, r2
 80010ce:	6c24      	ldr	r4, [r4, #64]	; 0x40
 80010d0:	f44f 737a 	mov.w	r3, #1000	; 0x3e8
 80010d4:	fbb4 f3f3 	udiv	r3, r4, r3
 80010d8:	fb02 6211 	mls	r2, r2, r1, r6
 80010dc:	480c      	ldr	r0, [pc, #48]	; (8001110 <process_stat+0xd4>)
 80010de:	f7ff fb53 	bl	8000788 <printk>
 80010e2:	480c      	ldr	r0, [pc, #48]	; (8001114 <process_stat+0xd8>)
 80010e4:	f7ff fb50 	bl	8000788 <printk>
 80010e8:	f04f 5300 	mov.w	r3, #536870912	; 0x20000000
 80010ec:	601d      	str	r5, [r3, #0]
 80010ee:	b006      	add	sp, #24
 80010f0:	bd70      	pop	{r4, r5, r6, pc}
 80010f2:	bf00      	nop
 80010f4:	080058ff 	.word	0x080058ff
 80010f8:	08005909 	.word	0x08005909
 80010fc:	08005913 	.word	0x08005913
 8001100:	08005919 	.word	0x08005919
 8001104:	0800591e 	.word	0x0800591e
 8001108:	08005936 	.word	0x08005936
 800110c:	08005944 	.word	0x08005944
 8001110:	08005953 	.word	0x08005953
 8001114:	08005b3b 	.word	0x08005b3b

08001118 <kprocess_info>:
 8001118:	e92d 41f0 	stmdb	sp!, {r4, r5, r6, r7, r8, lr}
 800111c:	486c      	ldr	r0, [pc, #432]	; (80012d0 <kprocess_info+0x1b8>)
 800111e:	b092      	sub	sp, #72	; 0x48
 8001120:	f7ff fb32 	bl	8000788 <printk>
 8001124:	486b      	ldr	r0, [pc, #428]	; (80012d4 <kprocess_info+0x1bc>)
 8001126:	f7ff fb2f 	bl	8000788 <printk>
 800112a:	b672      	cpsid	i
 800112c:	4b6a      	ldr	r3, [pc, #424]	; (80012d8 <kprocess_info+0x1c0>)
 800112e:	2500      	movs	r5, #0
 8001130:	681a      	ldr	r2, [r3, #0]
 8001132:	9205      	str	r2, [sp, #20]
 8001134:	681a      	ldr	r2, [r3, #0]
 8001136:	9206      	str	r2, [sp, #24]
 8001138:	681b      	ldr	r3, [r3, #0]
 800113a:	3300      	adds	r3, #0
 800113c:	bf18      	it	ne
 800113e:	2301      	movne	r3, #1
 8001140:	f88d 301c 	strb.w	r3, [sp, #28]
 8001144:	a805      	add	r0, sp, #20
 8001146:	a901      	add	r1, sp, #4
 8001148:	f7ff fd77 	bl	8000c3a <dlist_enum>
 800114c:	b120      	cbz	r0, 8001158 <kprocess_info+0x40>
 800114e:	9801      	ldr	r0, [sp, #4]
 8001150:	f7ff ff74 	bl	800103c <process_stat>
 8001154:	3501      	adds	r5, #1
 8001156:	e7f5      	b.n	8001144 <kprocess_info+0x2c>
 8001158:	4b60      	ldr	r3, [pc, #384]	; (80012dc <kprocess_info+0x1c4>)
 800115a:	681a      	ldr	r2, [r3, #0]
 800115c:	9205      	str	r2, [sp, #20]
 800115e:	681a      	ldr	r2, [r3, #0]
 8001160:	9206      	str	r2, [sp, #24]
 8001162:	681b      	ldr	r3, [r3, #0]
 8001164:	3300      	adds	r3, #0
 8001166:	bf18      	it	ne
 8001168:	2301      	movne	r3, #1
 800116a:	f88d 301c 	strb.w	r3, [sp, #28]
 800116e:	a805      	add	r0, sp, #20
 8001170:	a901      	add	r1, sp, #4
 8001172:	f7ff fd62 	bl	8000c3a <dlist_enum>
 8001176:	4604      	mov	r4, r0
 8001178:	b120      	cbz	r0, 8001184 <kprocess_info+0x6c>
 800117a:	9801      	ldr	r0, [sp, #4]
 800117c:	f7ff ff5e 	bl	800103c <process_stat>
 8001180:	3501      	adds	r5, #1
 8001182:	e7f4      	b.n	800116e <kprocess_info+0x56>
 8001184:	4629      	mov	r1, r5
 8001186:	4856      	ldr	r0, [pc, #344]	; (80012e0 <kprocess_info+0x1c8>)
 8001188:	f7ff fafe 	bl	8000788 <printk>
 800118c:	4851      	ldr	r0, [pc, #324]	; (80012d4 <kprocess_info+0x1bc>)
 800118e:	f7ff fafb 	bl	8000788 <printk>
 8001192:	ab12      	add	r3, sp, #72	; 0x48
 8001194:	f04f 5200 	mov.w	r2, #536870912	; 0x20000000
 8001198:	f843 4d40 	str.w	r4, [r3, #-64]!
 800119c:	6817      	ldr	r7, [r2, #0]
 800119e:	a80d      	add	r0, sp, #52	; 0x34
 80011a0:	6013      	str	r3, [r2, #0]
 80011a2:	4621      	mov	r1, r4
 80011a4:	2214      	movs	r2, #20
 80011a6:	f004 f971 	bl	800548c <memset>
 80011aa:	4626      	mov	r6, r4
 80011ac:	4625      	mov	r5, r4
 80011ae:	4b4d      	ldr	r3, [pc, #308]	; (80012e4 <kprocess_info+0x1cc>)
 80011b0:	f8d3 00f4 	ldr.w	r0, [r3, #244]	; 0xf4
 80011b4:	f7ff fc94 	bl	8000ae0 <karray_size_internal>
 80011b8:	4285      	cmp	r5, r0
 80011ba:	d240      	bcs.n	800123e <kprocess_info+0x126>
 80011bc:	4628      	mov	r0, r5
 80011be:	f7ff fb37 	bl	8000830 <kpool_at>
 80011c2:	4680      	mov	r8, r0
 80011c4:	a908      	add	r1, sp, #32
 80011c6:	4628      	mov	r0, r5
 80011c8:	f7ff fbf9 	bl	80009be <kpool_stat>
 80011cc:	4846      	ldr	r0, [pc, #280]	; (80012e8 <kprocess_info+0x1d0>)
 80011ce:	f8d8 1000 	ldr.w	r1, [r8]
 80011d2:	f7ff fad9 	bl	8000788 <printk>
 80011d6:	4845      	ldr	r0, [pc, #276]	; (80012ec <kprocess_info+0x1d4>)
 80011d8:	f8d8 1004 	ldr.w	r1, [r8, #4]
 80011dc:	f7ff fad4 	bl	8000788 <printk>
 80011e0:	9b02      	ldr	r3, [sp, #8]
 80011e2:	b123      	cbz	r3, 80011ee <kprocess_info+0xd6>
 80011e4:	4842      	ldr	r0, [pc, #264]	; (80012f0 <kprocess_info+0x1d8>)
 80011e6:	f7ff facf 	bl	8000788 <printk>
 80011ea:	2401      	movs	r4, #1
 80011ec:	e00a      	b.n	8001204 <kprocess_info+0xec>
 80011ee:	4841      	ldr	r0, [pc, #260]	; (80012f4 <kprocess_info+0x1dc>)
 80011f0:	990b      	ldr	r1, [sp, #44]	; 0x2c
 80011f2:	9a09      	ldr	r2, [sp, #36]	; 0x24
 80011f4:	f7ff fac8 	bl	8000788 <printk>
 80011f8:	483f      	ldr	r0, [pc, #252]	; (80012f8 <kprocess_info+0x1e0>)
 80011fa:	990a      	ldr	r1, [sp, #40]	; 0x28
 80011fc:	9a0c      	ldr	r2, [sp, #48]	; 0x30
 80011fe:	9b08      	ldr	r3, [sp, #32]
 8001200:	f7ff fac2 	bl	8000788 <printk>
 8001204:	483d      	ldr	r0, [pc, #244]	; (80012fc <kprocess_info+0x1e4>)
 8001206:	f7ff fabf 	bl	8000788 <printk>
 800120a:	f8d8 3004 	ldr.w	r3, [r8, #4]
 800120e:	9a10      	ldr	r2, [sp, #64]	; 0x40
 8001210:	441e      	add	r6, r3
 8001212:	9b0b      	ldr	r3, [sp, #44]	; 0x2c
 8001214:	3501      	adds	r5, #1
 8001216:	4413      	add	r3, r2
 8001218:	9310      	str	r3, [sp, #64]	; 0x40
 800121a:	9a0e      	ldr	r2, [sp, #56]	; 0x38
 800121c:	9b09      	ldr	r3, [sp, #36]	; 0x24
 800121e:	4413      	add	r3, r2
 8001220:	930e      	str	r3, [sp, #56]	; 0x38
 8001222:	9a0f      	ldr	r2, [sp, #60]	; 0x3c
 8001224:	9b0a      	ldr	r3, [sp, #40]	; 0x28
 8001226:	4413      	add	r3, r2
 8001228:	930f      	str	r3, [sp, #60]	; 0x3c
 800122a:	9a0d      	ldr	r2, [sp, #52]	; 0x34
 800122c:	9b08      	ldr	r3, [sp, #32]
 800122e:	4413      	add	r3, r2
 8001230:	930d      	str	r3, [sp, #52]	; 0x34
 8001232:	9a11      	ldr	r2, [sp, #68]	; 0x44
 8001234:	9b0c      	ldr	r3, [sp, #48]	; 0x30
 8001236:	4293      	cmp	r3, r2
 8001238:	bf88      	it	hi
 800123a:	9311      	strhi	r3, [sp, #68]	; 0x44
 800123c:	e7b7      	b.n	80011ae <kprocess_info+0x96>
 800123e:	4b30      	ldr	r3, [pc, #192]	; (8001300 <kprocess_info+0x1e8>)
 8001240:	4830      	ldr	r0, [pc, #192]	; (8001304 <kprocess_info+0x1ec>)
 8001242:	6819      	ldr	r1, [r3, #0]
 8001244:	f7ff faa0 	bl	8000788 <printk>
 8001248:	492f      	ldr	r1, [pc, #188]	; (8001308 <kprocess_info+0x1f0>)
 800124a:	680b      	ldr	r3, [r1, #0]
 800124c:	1d0a      	adds	r2, r1, #4
 800124e:	f1b3 3fcd 	cmp.w	r3, #3452816845	; 0xcdcdcdcd
 8001252:	d103      	bne.n	800125c <kprocess_info+0x144>
 8001254:	4b2d      	ldr	r3, [pc, #180]	; (800130c <kprocess_info+0x1f4>)
 8001256:	4611      	mov	r1, r2
 8001258:	429a      	cmp	r2, r3
 800125a:	d1f6      	bne.n	800124a <kprocess_info+0x132>
 800125c:	f1c1 5100 	rsb	r1, r1, #536870912	; 0x20000000
 8001260:	482b      	ldr	r0, [pc, #172]	; (8001310 <kprocess_info+0x1f8>)
 8001262:	f501 5120 	add.w	r1, r1, #10240	; 0x2800
 8001266:	f7ff fa8f 	bl	8000788 <printk>
 800126a:	4820      	ldr	r0, [pc, #128]	; (80012ec <kprocess_info+0x1d4>)
 800126c:	4631      	mov	r1, r6
 800126e:	f7ff fa8b 	bl	8000788 <printk>
 8001272:	b11c      	cbz	r4, 800127c <kprocess_info+0x164>
 8001274:	481e      	ldr	r0, [pc, #120]	; (80012f0 <kprocess_info+0x1d8>)
 8001276:	f7ff fa87 	bl	8000788 <printk>
 800127a:	e00a      	b.n	8001292 <kprocess_info+0x17a>
 800127c:	481d      	ldr	r0, [pc, #116]	; (80012f4 <kprocess_info+0x1dc>)
 800127e:	9910      	ldr	r1, [sp, #64]	; 0x40
 8001280:	9a0e      	ldr	r2, [sp, #56]	; 0x38
 8001282:	f7ff fa81 	bl	8000788 <printk>
 8001286:	481c      	ldr	r0, [pc, #112]	; (80012f8 <kprocess_info+0x1e0>)
 8001288:	990f      	ldr	r1, [sp, #60]	; 0x3c
 800128a:	9a11      	ldr	r2, [sp, #68]	; 0x44
 800128c:	9b0d      	ldr	r3, [sp, #52]	; 0x34
 800128e:	f7ff fa7b 	bl	8000788 <printk>
 8001292:	a803      	add	r0, sp, #12
 8001294:	f000 f87a 	bl	800138c <ksystime_get_uptime_internal>
 8001298:	9a03      	ldr	r2, [sp, #12]
 800129a:	233c      	movs	r3, #60	; 0x3c
 800129c:	fbb2 f1f3 	udiv	r1, r2, r3
 80012a0:	9c04      	ldr	r4, [sp, #16]
 80012a2:	fb03 2211 	mls	r2, r3, r1, r2
 80012a6:	f44f 737a 	mov.w	r3, #1000	; 0x3e8
 80012aa:	fbb4 f3f3 	udiv	r3, r4, r3
 80012ae:	4819      	ldr	r0, [pc, #100]	; (8001314 <kprocess_info+0x1fc>)
 80012b0:	f7ff fa6a 	bl	8000788 <printk>
 80012b4:	4811      	ldr	r0, [pc, #68]	; (80012fc <kprocess_info+0x1e4>)
 80012b6:	f7ff fa67 	bl	8000788 <printk>
 80012ba:	f04f 5300 	mov.w	r3, #536870912	; 0x20000000
 80012be:	601f      	str	r7, [r3, #0]
 80012c0:	4804      	ldr	r0, [pc, #16]	; (80012d4 <kprocess_info+0x1bc>)
 80012c2:	f7ff fa61 	bl	8000788 <printk>
 80012c6:	b662      	cpsie	i
 80012c8:	b012      	add	sp, #72	; 0x48
 80012ca:	e8bd 81f0 	ldmia.w	sp!, {r4, r5, r6, r7, r8, pc}
 80012ce:	bf00      	nop
 80012d0:	08005961 	.word	0x08005961
 80012d4:	080059ac 	.word	0x080059ac
 80012d8:	20000014 	.word	0x20000014
 80012dc:	20000018 	.word	0x20000018
 80012e0:	080059f7 	.word	0x080059f7
 80012e4:	2000000c 	.word	0x2000000c
 80012e8:	08005a0c 	.word	0x08005a0c
 80012ec:	08005919 	.word	0x08005919
 80012f0:	0800591e 	.word	0x0800591e
 80012f4:	08005a2b 	.word	0x08005a2b
 80012f8:	08005a37 	.word	0x08005a37
 80012fc:	08005b3b 	.word	0x08005b3b
 8001300:	08005840 	.word	0x08005840
 8001304:	08005a45 	.word	0x08005a45
 8001308:	20002600 	.word	0x20002600
 800130c:	20002800 	.word	0x20002800
 8001310:	08005913 	.word	0x08005913
 8001314:	08005953 	.word	0x08005953

08001318 <dlist_remove_head>:
 8001318:	6803      	ldr	r3, [r0, #0]
 800131a:	685a      	ldr	r2, [r3, #4]
 800131c:	429a      	cmp	r2, r3
 800131e:	bf17      	itett	ne
 8001320:	681b      	ldrne	r3, [r3, #0]
 8001322:	2300      	moveq	r3, #0
 8001324:	6013      	strne	r3, [r2, #0]
 8001326:	6803      	ldrne	r3, [r0, #0]
 8001328:	bf1f      	itttt	ne
 800132a:	685a      	ldrne	r2, [r3, #4]
 800132c:	681b      	ldrne	r3, [r3, #0]
 800132e:	605a      	strne	r2, [r3, #4]
 8001330:	6803      	ldrne	r3, [r0, #0]
 8001332:	bf18      	it	ne
 8001334:	685b      	ldrne	r3, [r3, #4]
 8001336:	6003      	str	r3, [r0, #0]
 8001338:	4770      	bx	lr
 800133a:	0000      	movs	r0, r0

0800133c <hpet_start_stub>:
 800133c:	4801      	ldr	r0, [pc, #4]	; (8001344 <hpet_start_stub+0x8>)
 800133e:	f7ff ba23 	b.w	8000788 <printk>
 8001342:	bf00      	nop
 8001344:	08005a57 	.word	0x08005a57

08001348 <hpet_stop_stub>:
 8001348:	4801      	ldr	r0, [pc, #4]	; (8001350 <hpet_stop_stub+0x8>)
 800134a:	f7ff ba1d 	b.w	8000788 <printk>
 800134e:	bf00      	nop
 8001350:	08005a78 	.word	0x08005a78

08001354 <hpet_elapsed_stub>:
 8001354:	b508      	push	{r3, lr}
 8001356:	4802      	ldr	r0, [pc, #8]	; (8001360 <hpet_elapsed_stub+0xc>)
 8001358:	f7ff fa16 	bl	8000788 <printk>
 800135c:	2000      	movs	r0, #0
 800135e:	bd08      	pop	{r3, pc}
 8001360:	08005a98 	.word	0x08005a98

08001364 <ksystime_soft_timer_timeout>:
 8001364:	b57f      	push	{r0, r1, r2, r3, r4, r5, r6, lr}
 8001366:	69c3      	ldr	r3, [r0, #28]
 8001368:	9004      	str	r0, [sp, #16]
 800136a:	9301      	str	r3, [sp, #4]
 800136c:	f890 3024 	ldrb.w	r3, [r0, #36]	; 0x24
 8001370:	a901      	add	r1, sp, #4
 8001372:	041b      	lsls	r3, r3, #16
 8001374:	f043 0302 	orr.w	r3, r3, #2
 8001378:	9302      	str	r3, [sp, #8]
 800137a:	6a03      	ldr	r3, [r0, #32]
 800137c:	f06f 0002 	mvn.w	r0, #2
 8001380:	9303      	str	r3, [sp, #12]
 8001382:	f000 f9ad 	bl	80016e0 <kipc_post>
 8001386:	b007      	add	sp, #28
 8001388:	f85d fb04 	ldr.w	pc, [sp], #4

0800138c <ksystime_get_uptime_internal>:
 800138c:	b538      	push	{r3, r4, r5, lr}
 800138e:	4b09      	ldr	r3, [pc, #36]	; (80013b4 <ksystime_get_uptime_internal+0x28>)
 8001390:	4605      	mov	r5, r0
 8001392:	f8d3 20d4 	ldr.w	r2, [r3, #212]	; 0xd4
 8001396:	f8d3 40d8 	ldr.w	r4, [r3, #216]	; 0xd8
 800139a:	6002      	str	r2, [r0, #0]
 800139c:	f8d3 20e4 	ldr.w	r2, [r3, #228]	; 0xe4
 80013a0:	f8d3 00e8 	ldr.w	r0, [r3, #232]	; 0xe8
 80013a4:	4790      	blx	r2
 80013a6:	4b04      	ldr	r3, [pc, #16]	; (80013b8 <ksystime_get_uptime_internal+0x2c>)
 80013a8:	4420      	add	r0, r4
 80013aa:	4298      	cmp	r0, r3
 80013ac:	bf94      	ite	ls
 80013ae:	6068      	strls	r0, [r5, #4]
 80013b0:	606b      	strhi	r3, [r5, #4]
 80013b2:	bd38      	pop	{r3, r4, r5, pc}
 80013b4:	2000000c 	.word	0x2000000c
 80013b8:	000f423f 	.word	0x000f423f

080013bc <find_shoot_next>:
 80013bc:	b51f      	push	{r0, r1, r2, r3, r4, lr}
 80013be:	2300      	movs	r3, #0
 80013c0:	9301      	str	r3, [sp, #4]
 80013c2:	b672      	cpsid	i
 80013c4:	4c28      	ldr	r4, [pc, #160]	; (8001468 <find_shoot_next+0xac>)
 80013c6:	f8d4 30ec 	ldr.w	r3, [r4, #236]	; 0xec
 80013ca:	2b00      	cmp	r3, #0
 80013cc:	d040      	beq.n	8001450 <find_shoot_next+0x94>
 80013ce:	a802      	add	r0, sp, #8
 80013d0:	f7ff ffdc 	bl	800138c <ksystime_get_uptime_internal>
 80013d4:	f8d4 00ec 	ldr.w	r0, [r4, #236]	; 0xec
 80013d8:	a902      	add	r1, sp, #8
 80013da:	3008      	adds	r0, #8
 80013dc:	f003 fc55 	bl	8004c8a <systime_compare>
 80013e0:	2800      	cmp	r0, #0
 80013e2:	db13      	blt.n	800140c <find_shoot_next+0x50>
 80013e4:	f8d4 40ec 	ldr.w	r4, [r4, #236]	; 0xec
 80013e8:	2300      	movs	r3, #0
 80013ea:	7623      	strb	r3, [r4, #24]
 80013ec:	481f      	ldr	r0, [pc, #124]	; (800146c <find_shoot_next+0xb0>)
 80013ee:	f7ff ff93 	bl	8001318 <dlist_remove_head>
 80013f2:	9b01      	ldr	r3, [sp, #4]
 80013f4:	b91b      	cbnz	r3, 80013fe <find_shoot_next+0x42>
 80013f6:	9401      	str	r4, [sp, #4]
 80013f8:	6064      	str	r4, [r4, #4]
 80013fa:	6024      	str	r4, [r4, #0]
 80013fc:	e7e2      	b.n	80013c4 <find_shoot_next+0x8>
 80013fe:	681a      	ldr	r2, [r3, #0]
 8001400:	6063      	str	r3, [r4, #4]
 8001402:	6022      	str	r2, [r4, #0]
 8001404:	681a      	ldr	r2, [r3, #0]
 8001406:	6054      	str	r4, [r2, #4]
 8001408:	601c      	str	r4, [r3, #0]
 800140a:	e7db      	b.n	80013c4 <find_shoot_next+0x8>
 800140c:	f8d4 30ec 	ldr.w	r3, [r4, #236]	; 0xec
 8001410:	689a      	ldr	r2, [r3, #8]
 8001412:	9b02      	ldr	r3, [sp, #8]
 8001414:	429a      	cmp	r2, r3
 8001416:	d11b      	bne.n	8001450 <find_shoot_next+0x94>
 8001418:	f8d4 30e4 	ldr.w	r3, [r4, #228]	; 0xe4
 800141c:	f8d4 00e8 	ldr.w	r0, [r4, #232]	; 0xe8
 8001420:	4798      	blx	r3
 8001422:	f8d4 30d8 	ldr.w	r3, [r4, #216]	; 0xd8
 8001426:	4418      	add	r0, r3
 8001428:	f8c4 00d8 	str.w	r0, [r4, #216]	; 0xd8
 800142c:	f8d4 30e0 	ldr.w	r3, [r4, #224]	; 0xe0
 8001430:	f8d4 00e8 	ldr.w	r0, [r4, #232]	; 0xe8
 8001434:	4798      	blx	r3
 8001436:	f8d4 30ec 	ldr.w	r3, [r4, #236]	; 0xec
 800143a:	f8d4 00d8 	ldr.w	r0, [r4, #216]	; 0xd8
 800143e:	68db      	ldr	r3, [r3, #12]
 8001440:	f8d4 10e8 	ldr.w	r1, [r4, #232]	; 0xe8
 8001444:	1a18      	subs	r0, r3, r0
 8001446:	f8c4 00f0 	str.w	r0, [r4, #240]	; 0xf0
 800144a:	f8d4 30dc 	ldr.w	r3, [r4, #220]	; 0xdc
 800144e:	4798      	blx	r3
 8001450:	b662      	cpsie	i
 8001452:	9c01      	ldr	r4, [sp, #4]
 8001454:	b134      	cbz	r4, 8001464 <find_shoot_next+0xa8>
 8001456:	a801      	add	r0, sp, #4
 8001458:	f7ff ff5e 	bl	8001318 <dlist_remove_head>
 800145c:	6923      	ldr	r3, [r4, #16]
 800145e:	6960      	ldr	r0, [r4, #20]
 8001460:	4798      	blx	r3
 8001462:	e7f6      	b.n	8001452 <find_shoot_next+0x96>
 8001464:	b004      	add	sp, #16
 8001466:	bd10      	pop	{r4, pc}
 8001468:	2000000c 	.word	0x2000000c
 800146c:	200000f8 	.word	0x200000f8

08001470 <ksystime_get_uptime>:
 8001470:	b508      	push	{r3, lr}
 8001472:	b672      	cpsid	i
 8001474:	f7ff ff8a 	bl	800138c <ksystime_get_uptime_internal>
 8001478:	b662      	cpsie	i
 800147a:	bd08      	pop	{r3, pc}

0800147c <ksystime_second_pulse>:
 800147c:	b538      	push	{r3, r4, r5, lr}
 800147e:	b672      	cpsid	i
 8001480:	4c0d      	ldr	r4, [pc, #52]	; (80014b8 <ksystime_second_pulse+0x3c>)
 8001482:	2500      	movs	r5, #0
 8001484:	f8d4 30d4 	ldr.w	r3, [r4, #212]	; 0xd4
 8001488:	f8d4 00e8 	ldr.w	r0, [r4, #232]	; 0xe8
 800148c:	3301      	adds	r3, #1
 800148e:	f8c4 30d4 	str.w	r3, [r4, #212]	; 0xd4
 8001492:	f8c4 50f0 	str.w	r5, [r4, #240]	; 0xf0
 8001496:	f8d4 30e0 	ldr.w	r3, [r4, #224]	; 0xe0
 800149a:	4798      	blx	r3
 800149c:	f8d4 30dc 	ldr.w	r3, [r4, #220]	; 0xdc
 80014a0:	4806      	ldr	r0, [pc, #24]	; (80014bc <ksystime_second_pulse+0x40>)
 80014a2:	f8d4 10e8 	ldr.w	r1, [r4, #232]	; 0xe8
 80014a6:	4798      	blx	r3
 80014a8:	f8c4 50d8 	str.w	r5, [r4, #216]	; 0xd8
 80014ac:	b662      	cpsie	i
 80014ae:	e8bd 4038 	ldmia.w	sp!, {r3, r4, r5, lr}
 80014b2:	f7ff bf83 	b.w	80013bc <find_shoot_next>
 80014b6:	bf00      	nop
 80014b8:	2000000c 	.word	0x2000000c
 80014bc:	001e8480 	.word	0x001e8480

080014c0 <ksystime_hpet_timeout>:
 80014c0:	b510      	push	{r4, lr}
 80014c2:	4c0e      	ldr	r4, [pc, #56]	; (80014fc <ksystime_hpet_timeout+0x3c>)
 80014c4:	f8d4 30f0 	ldr.w	r3, [r4, #240]	; 0xf0
 80014c8:	b913      	cbnz	r3, 80014d0 <ksystime_hpet_timeout+0x10>
 80014ca:	480d      	ldr	r0, [pc, #52]	; (8001500 <ksystime_hpet_timeout+0x40>)
 80014cc:	f7ff f95c 	bl	8000788 <printk>
 80014d0:	b672      	cpsid	i
 80014d2:	f8d4 20f0 	ldr.w	r2, [r4, #240]	; 0xf0
 80014d6:	f8d4 30d8 	ldr.w	r3, [r4, #216]	; 0xd8
 80014da:	480a      	ldr	r0, [pc, #40]	; (8001504 <ksystime_hpet_timeout+0x44>)
 80014dc:	4413      	add	r3, r2
 80014de:	f8c4 30d8 	str.w	r3, [r4, #216]	; 0xd8
 80014e2:	2300      	movs	r3, #0
 80014e4:	f8c4 30f0 	str.w	r3, [r4, #240]	; 0xf0
 80014e8:	f8d4 10e8 	ldr.w	r1, [r4, #232]	; 0xe8
 80014ec:	f8d4 30dc 	ldr.w	r3, [r4, #220]	; 0xdc
 80014f0:	4798      	blx	r3
 80014f2:	b662      	cpsie	i
 80014f4:	e8bd 4010 	ldmia.w	sp!, {r4, lr}
 80014f8:	f7ff bf60 	b.w	80013bc <find_shoot_next>
 80014fc:	2000000c 	.word	0x2000000c
 8001500:	08005abb 	.word	0x08005abb
 8001504:	001e8480 	.word	0x001e8480

08001508 <ksystime_hpet_setup>:
 8001508:	4b0d      	ldr	r3, [pc, #52]	; (8001540 <ksystime_hpet_setup+0x38>)
 800150a:	b530      	push	{r4, r5, lr}
 800150c:	4a0d      	ldr	r2, [pc, #52]	; (8001544 <ksystime_hpet_setup+0x3c>)
 800150e:	f8d3 50dc 	ldr.w	r5, [r3, #220]	; 0xdc
 8001512:	4295      	cmp	r5, r2
 8001514:	d10e      	bne.n	8001534 <ksystime_hpet_setup+0x2c>
 8001516:	6802      	ldr	r2, [r0, #0]
 8001518:	6845      	ldr	r5, [r0, #4]
 800151a:	6880      	ldr	r0, [r0, #8]
 800151c:	f8c3 50e0 	str.w	r5, [r3, #224]	; 0xe0
 8001520:	f8c3 00e4 	str.w	r0, [r3, #228]	; 0xe4
 8001524:	f8c3 20dc 	str.w	r2, [r3, #220]	; 0xdc
 8001528:	f8c3 10e8 	str.w	r1, [r3, #232]	; 0xe8
 800152c:	4806      	ldr	r0, [pc, #24]	; (8001548 <ksystime_hpet_setup+0x40>)
 800152e:	e8bd 4030 	ldmia.w	sp!, {r4, r5, lr}
 8001532:	4710      	bx	r2
 8001534:	f06f 0008 	mvn.w	r0, #8
 8001538:	e8bd 4030 	ldmia.w	sp!, {r4, r5, lr}
 800153c:	f003 bb33 	b.w	8004ba6 <error>
 8001540:	2000000c 	.word	0x2000000c
 8001544:	0800133d 	.word	0x0800133d
 8001548:	001e8480 	.word	0x001e8480

0800154c <ksystime_timer_start_internal>:
 800154c:	e92d 43f7 	stmdb	sp!, {r0, r1, r2, r4, r5, r6, r7, r8, r9, lr}
 8001550:	460d      	mov	r5, r1
 8001552:	4604      	mov	r4, r0
 8001554:	4668      	mov	r0, sp
 8001556:	f7ff ff8b 	bl	8001470 <ksystime_get_uptime>
 800155a:	682b      	ldr	r3, [r5, #0]
 800155c:	f104 0608 	add.w	r6, r4, #8
 8001560:	60a3      	str	r3, [r4, #8]
 8001562:	686b      	ldr	r3, [r5, #4]
 8001564:	4668      	mov	r0, sp
 8001566:	60e3      	str	r3, [r4, #12]
 8001568:	4631      	mov	r1, r6
 800156a:	4632      	mov	r2, r6
 800156c:	f003 fb93 	bl	8004c96 <systime_add>
 8001570:	b672      	cpsid	i
 8001572:	4b23      	ldr	r3, [pc, #140]	; (8001600 <ksystime_timer_start_internal+0xb4>)
 8001574:	681f      	ldr	r7, [r3, #0]
 8001576:	463d      	mov	r5, r7
 8001578:	f117 0900 	adds.w	r9, r7, #0
 800157c:	bf18      	it	ne
 800157e:	f04f 0901 	movne.w	r9, #1
 8001582:	f1b9 0f00 	cmp.w	r9, #0
 8001586:	d023      	beq.n	80015d0 <ksystime_timer_start_internal+0x84>
 8001588:	f8d5 8004 	ldr.w	r8, [r5, #4]
 800158c:	f105 0008 	add.w	r0, r5, #8
 8001590:	ebb8 0907 	subs.w	r9, r8, r7
 8001594:	4631      	mov	r1, r6
 8001596:	bf18      	it	ne
 8001598:	f04f 0901 	movne.w	r9, #1
 800159c:	f003 fb75 	bl	8004c8a <systime_compare>
 80015a0:	2800      	cmp	r0, #0
 80015a2:	da13      	bge.n	80015cc <ksystime_timer_start_internal+0x80>
 80015a4:	4b16      	ldr	r3, [pc, #88]	; (8001600 <ksystime_timer_start_internal+0xb4>)
 80015a6:	681a      	ldr	r2, [r3, #0]
 80015a8:	6065      	str	r5, [r4, #4]
 80015aa:	4295      	cmp	r5, r2
 80015ac:	d108      	bne.n	80015c0 <ksystime_timer_start_internal+0x74>
 80015ae:	681a      	ldr	r2, [r3, #0]
 80015b0:	6812      	ldr	r2, [r2, #0]
 80015b2:	6022      	str	r2, [r4, #0]
 80015b4:	681a      	ldr	r2, [r3, #0]
 80015b6:	6812      	ldr	r2, [r2, #0]
 80015b8:	6054      	str	r4, [r2, #4]
 80015ba:	681a      	ldr	r2, [r3, #0]
 80015bc:	6014      	str	r4, [r2, #0]
 80015be:	e016      	b.n	80015ee <ksystime_timer_start_internal+0xa2>
 80015c0:	682b      	ldr	r3, [r5, #0]
 80015c2:	6023      	str	r3, [r4, #0]
 80015c4:	682b      	ldr	r3, [r5, #0]
 80015c6:	605c      	str	r4, [r3, #4]
 80015c8:	602c      	str	r4, [r5, #0]
 80015ca:	e011      	b.n	80015f0 <ksystime_timer_start_internal+0xa4>
 80015cc:	4645      	mov	r5, r8
 80015ce:	e7d8      	b.n	8001582 <ksystime_timer_start_internal+0x36>
 80015d0:	4b0b      	ldr	r3, [pc, #44]	; (8001600 <ksystime_timer_start_internal+0xb4>)
 80015d2:	681a      	ldr	r2, [r3, #0]
 80015d4:	b91a      	cbnz	r2, 80015de <ksystime_timer_start_internal+0x92>
 80015d6:	601c      	str	r4, [r3, #0]
 80015d8:	6024      	str	r4, [r4, #0]
 80015da:	6064      	str	r4, [r4, #4]
 80015dc:	e008      	b.n	80015f0 <ksystime_timer_start_internal+0xa4>
 80015de:	6062      	str	r2, [r4, #4]
 80015e0:	681a      	ldr	r2, [r3, #0]
 80015e2:	6812      	ldr	r2, [r2, #0]
 80015e4:	6022      	str	r2, [r4, #0]
 80015e6:	681a      	ldr	r2, [r3, #0]
 80015e8:	6812      	ldr	r2, [r2, #0]
 80015ea:	6054      	str	r4, [r2, #4]
 80015ec:	681b      	ldr	r3, [r3, #0]
 80015ee:	601c      	str	r4, [r3, #0]
 80015f0:	2301      	movs	r3, #1
 80015f2:	7623      	strb	r3, [r4, #24]
 80015f4:	b662      	cpsie	i
 80015f6:	f7ff fee1 	bl	80013bc <find_shoot_next>
 80015fa:	b003      	add	sp, #12
 80015fc:	e8bd 83f0 	ldmia.w	sp!, {r4, r5, r6, r7, r8, r9, pc}
 8001600:	200000f8 	.word	0x200000f8

08001604 <ksystime_timer_stop_internal>:
 8001604:	7e03      	ldrb	r3, [r0, #24]
 8001606:	b570      	push	{r4, r5, r6, lr}
 8001608:	4605      	mov	r5, r0
 800160a:	b173      	cbz	r3, 800162a <ksystime_timer_stop_internal+0x26>
 800160c:	4c07      	ldr	r4, [pc, #28]	; (800162c <ksystime_timer_stop_internal+0x28>)
 800160e:	6826      	ldr	r6, [r4, #0]
 8001610:	4286      	cmp	r6, r0
 8001612:	d103      	bne.n	800161c <ksystime_timer_stop_internal+0x18>
 8001614:	4620      	mov	r0, r4
 8001616:	f7ff fe7f 	bl	8001318 <dlist_remove_head>
 800161a:	e004      	b.n	8001626 <ksystime_timer_stop_internal+0x22>
 800161c:	6020      	str	r0, [r4, #0]
 800161e:	4620      	mov	r0, r4
 8001620:	f7ff fe7a 	bl	8001318 <dlist_remove_head>
 8001624:	6026      	str	r6, [r4, #0]
 8001626:	2300      	movs	r3, #0
 8001628:	762b      	strb	r3, [r5, #24]
 800162a:	bd70      	pop	{r4, r5, r6, pc}
 800162c:	200000f8 	.word	0x200000f8

08001630 <ksystime_timer_init_internal>:
 8001630:	2300      	movs	r3, #0
 8001632:	6101      	str	r1, [r0, #16]
 8001634:	6142      	str	r2, [r0, #20]
 8001636:	7603      	strb	r3, [r0, #24]
 8001638:	4770      	bx	lr
 800163a:	0000      	movs	r0, r0

0800163c <ksystime_soft_timer_create>:
 800163c:	b570      	push	{r4, r5, r6, lr}
 800163e:	4606      	mov	r6, r0
 8001640:	2028      	movs	r0, #40	; 0x28
 8001642:	460d      	mov	r5, r1
 8001644:	4614      	mov	r4, r2
 8001646:	f7ff f9d0 	bl	80009ea <kmalloc>
 800164a:	b148      	cbz	r0, 8001660 <ksystime_soft_timer_create+0x24>
 800164c:	4b06      	ldr	r3, [pc, #24]	; (8001668 <ksystime_soft_timer_create+0x2c>)
 800164e:	61c6      	str	r6, [r0, #28]
 8001650:	6103      	str	r3, [r0, #16]
 8001652:	2300      	movs	r3, #0
 8001654:	6205      	str	r5, [r0, #32]
 8001656:	f880 4024 	strb.w	r4, [r0, #36]	; 0x24
 800165a:	6140      	str	r0, [r0, #20]
 800165c:	7603      	strb	r3, [r0, #24]
 800165e:	bd70      	pop	{r4, r5, r6, pc}
 8001660:	f04f 30ff 	mov.w	r0, #4294967295
 8001664:	bd70      	pop	{r4, r5, r6, pc}
 8001666:	bf00      	nop
 8001668:	08001365 	.word	0x08001365

0800166c <ksystime_soft_timer_destroy>:
 800166c:	1c43      	adds	r3, r0, #1
 800166e:	d001      	beq.n	8001674 <ksystime_soft_timer_destroy+0x8>
 8001670:	f7ff b9c1 	b.w	80009f6 <kfree>
 8001674:	4770      	bx	lr

08001676 <ksystime_soft_timer_start>:
 8001676:	b672      	cpsid	i
 8001678:	b662      	cpsie	i
 800167a:	7e03      	ldrb	r3, [r0, #24]
 800167c:	b11b      	cbz	r3, 8001686 <ksystime_soft_timer_start+0x10>
 800167e:	f06f 0005 	mvn.w	r0, #5
 8001682:	f003 ba90 	b.w	8004ba6 <error>
 8001686:	f7ff bf61 	b.w	800154c <ksystime_timer_start_internal>

0800168a <ksystime_soft_timer_stop>:
 800168a:	b508      	push	{r3, lr}
 800168c:	b672      	cpsid	i
 800168e:	f7ff ffb9 	bl	8001604 <ksystime_timer_stop_internal>
 8001692:	b662      	cpsie	i
 8001694:	bd08      	pop	{r3, pc}
 8001696:	0000      	movs	r0, r0

08001698 <ksystime_init>:
 8001698:	4b05      	ldr	r3, [pc, #20]	; (80016b0 <ksystime_init+0x18>)
 800169a:	4a06      	ldr	r2, [pc, #24]	; (80016b4 <ksystime_init+0x1c>)
 800169c:	f8c3 20dc 	str.w	r2, [r3, #220]	; 0xdc
 80016a0:	4a05      	ldr	r2, [pc, #20]	; (80016b8 <ksystime_init+0x20>)
 80016a2:	f8c3 20e0 	str.w	r2, [r3, #224]	; 0xe0
 80016a6:	4a05      	ldr	r2, [pc, #20]	; (80016bc <ksystime_init+0x24>)
 80016a8:	f8c3 20e4 	str.w	r2, [r3, #228]	; 0xe4
 80016ac:	4770      	bx	lr
 80016ae:	bf00      	nop
 80016b0:	2000000c 	.word	0x2000000c
 80016b4:	0800133d 	.word	0x0800133d
 80016b8:	08001349 	.word	0x08001349
 80016bc:	08001355 	.word	0x08001355

080016c0 <kipc_init>:
 80016c0:	6883      	ldr	r3, [r0, #8]
 80016c2:	2200      	movs	r2, #0
 80016c4:	621a      	str	r2, [r3, #32]
 80016c6:	61da      	str	r2, [r3, #28]
 80016c8:	2207      	movs	r2, #7
 80016ca:	625a      	str	r2, [r3, #36]	; 0x24
 80016cc:	f04f 33ff 	mov.w	r3, #4294967295
 80016d0:	64c3      	str	r3, [r0, #76]	; 0x4c
 80016d2:	6503      	str	r3, [r0, #80]	; 0x50
 80016d4:	4770      	bx	lr

080016d6 <kipc_lock_release>:
 80016d6:	f04f 33ff 	mov.w	r3, #4294967295
 80016da:	64c3      	str	r3, [r0, #76]	; 0x4c
 80016dc:	4770      	bx	lr
 80016de:	0000      	movs	r0, r0

080016e0 <kipc_post>:
 80016e0:	b5f7      	push	{r0, r1, r2, r4, r5, r6, r7, lr}
 80016e2:	460c      	mov	r4, r1
 80016e4:	6863      	ldr	r3, [r4, #4]
 80016e6:	680a      	ldr	r2, [r1, #0]
 80016e8:	f003 4340 	and.w	r3, r3, #3221225472	; 0xc0000000
 80016ec:	f1b3 4f80 	cmp.w	r3, #1073741824	; 0x40000000
 80016f0:	4606      	mov	r6, r0
 80016f2:	68c9      	ldr	r1, [r1, #12]
 80016f4:	d103      	bne.n	80016fe <kipc_post+0x1e>
 80016f6:	f000 fb61 	bl	8001dbc <kio_send>
 80016fa:	2800      	cmp	r0, #0
 80016fc:	d05b      	beq.n	80017b6 <kipc_post+0xd6>
 80016fe:	6825      	ldr	r5, [r4, #0]
 8001700:	b672      	cpsid	i
 8001702:	6ceb      	ldr	r3, [r5, #76]	; 0x4c
 8001704:	42b3      	cmp	r3, r6
 8001706:	d001      	beq.n	800170c <kipc_post+0x2c>
 8001708:	3302      	adds	r3, #2
 800170a:	d111      	bne.n	8001730 <kipc_post+0x50>
 800170c:	6d2b      	ldr	r3, [r5, #80]	; 0x50
 800170e:	6862      	ldr	r2, [r4, #4]
 8001710:	4293      	cmp	r3, r2
 8001712:	d001      	beq.n	8001718 <kipc_post+0x38>
 8001714:	3301      	adds	r3, #1
 8001716:	d10b      	bne.n	8001730 <kipc_post+0x50>
 8001718:	6d6b      	ldr	r3, [r5, #84]	; 0x54
 800171a:	68a2      	ldr	r2, [r4, #8]
 800171c:	4293      	cmp	r3, r2
 800171e:	d001      	beq.n	8001724 <kipc_post+0x44>
 8001720:	3302      	adds	r3, #2
 8001722:	d105      	bne.n	8001730 <kipc_post+0x50>
 8001724:	f04f 33ff 	mov.w	r3, #4294967295
 8001728:	64eb      	str	r3, [r5, #76]	; 0x4c
 800172a:	4628      	mov	r0, r5
 800172c:	f7ff fb26 	bl	8000d7c <kprocess_wakeup>
 8001730:	68ab      	ldr	r3, [r5, #8]
 8001732:	69da      	ldr	r2, [r3, #28]
 8001734:	6a58      	ldr	r0, [r3, #36]	; 0x24
 8001736:	1c51      	adds	r1, r2, #1
 8001738:	4281      	cmp	r1, r0
 800173a:	bf34      	ite	cc
 800173c:	460f      	movcc	r7, r1
 800173e:	2700      	movcs	r7, #0
 8001740:	6a1d      	ldr	r5, [r3, #32]
 8001742:	42af      	cmp	r7, r5
 8001744:	bf16      	itet	ne
 8001746:	4639      	movne	r1, r7
 8001748:	f04f 32ff 	moveq.w	r2, #4294967295
 800174c:	61d9      	strne	r1, [r3, #28]
 800174e:	b662      	cpsie	i
 8001750:	2a00      	cmp	r2, #0
 8001752:	db0d      	blt.n	8001770 <kipc_post+0x90>
 8001754:	2114      	movs	r1, #20
 8001756:	434a      	muls	r2, r1
 8001758:	6860      	ldr	r0, [r4, #4]
 800175a:	3328      	adds	r3, #40	; 0x28
 800175c:	1899      	adds	r1, r3, r2
 800175e:	6048      	str	r0, [r1, #4]
 8001760:	68a0      	ldr	r0, [r4, #8]
 8001762:	6088      	str	r0, [r1, #8]
 8001764:	68e0      	ldr	r0, [r4, #12]
 8001766:	60c8      	str	r0, [r1, #12]
 8001768:	6920      	ldr	r0, [r4, #16]
 800176a:	6108      	str	r0, [r1, #16]
 800176c:	509e      	str	r6, [r3, r2]
 800176e:	e022      	b.n	80017b6 <kipc_post+0xd6>
 8001770:	f06f 000c 	mvn.w	r0, #12
 8001774:	f003 fa17 	bl	8004ba6 <error>
 8001778:	6820      	ldr	r0, [r4, #0]
 800177a:	f7ff fbcc 	bl	8000f16 <kprocess_name>
 800177e:	4601      	mov	r1, r0
 8001780:	480e      	ldr	r0, [pc, #56]	; (80017bc <kipc_post+0xdc>)
 8001782:	f7ff f801 	bl	8000788 <printk>
 8001786:	480e      	ldr	r0, [pc, #56]	; (80017c0 <kipc_post+0xe0>)
 8001788:	f7fe fffe 	bl	8000788 <printk>
 800178c:	1cf3      	adds	r3, r6, #3
 800178e:	d103      	bne.n	8001798 <kipc_post+0xb8>
 8001790:	480c      	ldr	r0, [pc, #48]	; (80017c4 <kipc_post+0xe4>)
 8001792:	f7fe fff9 	bl	8000788 <printk>
 8001796:	e006      	b.n	80017a6 <kipc_post+0xc6>
 8001798:	4630      	mov	r0, r6
 800179a:	f7ff fbbc 	bl	8000f16 <kprocess_name>
 800179e:	4601      	mov	r1, r0
 80017a0:	4809      	ldr	r0, [pc, #36]	; (80017c8 <kipc_post+0xe8>)
 80017a2:	f7fe fff1 	bl	8000788 <printk>
 80017a6:	6923      	ldr	r3, [r4, #16]
 80017a8:	1d21      	adds	r1, r4, #4
 80017aa:	9300      	str	r3, [sp, #0]
 80017ac:	4807      	ldr	r0, [pc, #28]	; (80017cc <kipc_post+0xec>)
 80017ae:	c90e      	ldmia	r1, {r1, r2, r3}
 80017b0:	f7fe ffea 	bl	8000788 <printk>
 80017b4:	e7fe      	b.n	80017b4 <kipc_post+0xd4>
 80017b6:	b003      	add	sp, #12
 80017b8:	bdf0      	pop	{r4, r5, r6, r7, pc}
 80017ba:	bf00      	nop
 80017bc:	08005b1b 	.word	0x08005b1b
 80017c0:	08005b3d 	.word	0x08005b3d
 80017c4:	08005b46 	.word	0x08005b46
 80017c8:	08005b81 	.word	0x08005b81
 80017cc:	08005b4e 	.word	0x08005b4e

080017d0 <kipc_wait>:
 80017d0:	4281      	cmp	r1, r0
 80017d2:	b5f8      	push	{r3, r4, r5, r6, r7, lr}
 80017d4:	4604      	mov	r4, r0
 80017d6:	460d      	mov	r5, r1
 80017d8:	4617      	mov	r7, r2
 80017da:	461e      	mov	r6, r3
 80017dc:	d10b      	bne.n	80017f6 <kipc_wait+0x26>
 80017de:	f7ff fb9a 	bl	8000f16 <kprocess_name>
 80017e2:	4601      	mov	r1, r0
 80017e4:	481f      	ldr	r0, [pc, #124]	; (8001864 <kipc_wait+0x94>)
 80017e6:	f7fe ffcf 	bl	8000788 <printk>
 80017ea:	e8bd 40f8 	ldmia.w	sp!, {r3, r4, r5, r6, r7, lr}
 80017ee:	f06f 0010 	mvn.w	r0, #16
 80017f2:	f003 b9d8 	b.w	8004ba6 <error>
 80017f6:	2100      	movs	r1, #0
 80017f8:	2240      	movs	r2, #64	; 0x40
 80017fa:	f04f 33ff 	mov.w	r3, #4294967295
 80017fe:	f7ff fbc7 	bl	8000f90 <kprocess_sleep>
 8001802:	b672      	cpsid	i
 8001804:	68a2      	ldr	r2, [r4, #8]
 8001806:	f8d2 e01c 	ldr.w	lr, [r2, #28]
 800180a:	6a13      	ldr	r3, [r2, #32]
 800180c:	4573      	cmp	r3, lr
 800180e:	d024      	beq.n	800185a <kipc_wait+0x8a>
 8001810:	2114      	movs	r1, #20
 8001812:	4359      	muls	r1, r3
 8001814:	f102 0028 	add.w	r0, r2, #40	; 0x28
 8001818:	eb00 0c01 	add.w	ip, r0, r1
 800181c:	5841      	ldr	r1, [r0, r1]
 800181e:	42a9      	cmp	r1, r5
 8001820:	d001      	beq.n	8001826 <kipc_wait+0x56>
 8001822:	1ca9      	adds	r1, r5, #2
 8001824:	d111      	bne.n	800184a <kipc_wait+0x7a>
 8001826:	f8dc 1004 	ldr.w	r1, [ip, #4]
 800182a:	42b9      	cmp	r1, r7
 800182c:	d001      	beq.n	8001832 <kipc_wait+0x62>
 800182e:	1c78      	adds	r0, r7, #1
 8001830:	d10b      	bne.n	800184a <kipc_wait+0x7a>
 8001832:	f8dc 1008 	ldr.w	r1, [ip, #8]
 8001836:	42b1      	cmp	r1, r6
 8001838:	d105      	bne.n	8001846 <kipc_wait+0x76>
 800183a:	2b00      	cmp	r3, #0
 800183c:	db0d      	blt.n	800185a <kipc_wait+0x8a>
 800183e:	4620      	mov	r0, r4
 8001840:	f7ff fa9c 	bl	8000d7c <kprocess_wakeup>
 8001844:	e00c      	b.n	8001860 <kipc_wait+0x90>
 8001846:	1cb1      	adds	r1, r6, #2
 8001848:	d0f7      	beq.n	800183a <kipc_wait+0x6a>
 800184a:	6a50      	ldr	r0, [r2, #36]	; 0x24
 800184c:	1c59      	adds	r1, r3, #1
 800184e:	4281      	cmp	r1, r0
 8001850:	f04f 0300 	mov.w	r3, #0
 8001854:	bf38      	it	cc
 8001856:	460b      	movcc	r3, r1
 8001858:	e7d8      	b.n	800180c <kipc_wait+0x3c>
 800185a:	64e5      	str	r5, [r4, #76]	; 0x4c
 800185c:	6527      	str	r7, [r4, #80]	; 0x50
 800185e:	6566      	str	r6, [r4, #84]	; 0x54
 8001860:	b662      	cpsie	i
 8001862:	bdf8      	pop	{r3, r4, r5, r6, r7, pc}
 8001864:	08005b73 	.word	0x08005b73

08001868 <kipc_call>:
 8001868:	b570      	push	{r4, r5, r6, lr}
 800186a:	460c      	mov	r4, r1
 800186c:	4605      	mov	r5, r0
 800186e:	f7ff ff37 	bl	80016e0 <kipc_post>
 8001872:	6862      	ldr	r2, [r4, #4]
 8001874:	4628      	mov	r0, r5
 8001876:	6821      	ldr	r1, [r4, #0]
 8001878:	68a3      	ldr	r3, [r4, #8]
 800187a:	f422 4200 	bic.w	r2, r2, #32768	; 0x8000
 800187e:	e8bd 4070 	ldmia.w	sp!, {r4, r5, r6, lr}
 8001882:	f7ff bfa5 	b.w	80017d0 <kipc_wait>

08001886 <dlist_remove_head>:
 8001886:	6803      	ldr	r3, [r0, #0]
 8001888:	685a      	ldr	r2, [r3, #4]
 800188a:	429a      	cmp	r2, r3
 800188c:	bf17      	itett	ne
 800188e:	681b      	ldrne	r3, [r3, #0]
 8001890:	2300      	moveq	r3, #0
 8001892:	6013      	strne	r3, [r2, #0]
 8001894:	6803      	ldrne	r3, [r0, #0]
 8001896:	bf1f      	itttt	ne
 8001898:	685a      	ldrne	r2, [r3, #4]
 800189a:	681b      	ldrne	r3, [r3, #0]
 800189c:	605a      	strne	r2, [r3, #4]
 800189e:	6803      	ldrne	r3, [r0, #0]
 80018a0:	bf18      	it	ne
 80018a2:	685b      	ldrne	r3, [r3, #4]
 80018a4:	6003      	str	r3, [r0, #0]
 80018a6:	4770      	bx	lr

080018a8 <kstream_destroy_handle.isra.0>:
 80018a8:	b570      	push	{r4, r5, r6, lr}
 80018aa:	4606      	mov	r6, r0
 80018ac:	460d      	mov	r5, r1
 80018ae:	6833      	ldr	r3, [r6, #0]
 80018b0:	b18b      	cbz	r3, 80018d6 <kstream_destroy_handle.isra.0+0x2e>
 80018b2:	682c      	ldr	r4, [r5, #0]
 80018b4:	f04f 33ff 	mov.w	r3, #4294967295
 80018b8:	60a3      	str	r3, [r4, #8]
 80018ba:	b672      	cpsid	i
 80018bc:	4628      	mov	r0, r5
 80018be:	f7ff ffe2 	bl	8001886 <dlist_remove_head>
 80018c2:	68e0      	ldr	r0, [r4, #12]
 80018c4:	f7ff fa5a 	bl	8000d7c <kprocess_wakeup>
 80018c8:	b662      	cpsie	i
 80018ca:	f06f 0109 	mvn.w	r1, #9
 80018ce:	68e0      	ldr	r0, [r4, #12]
 80018d0:	f7ff fb7a 	bl	8000fc8 <kprocess_error>
 80018d4:	e7eb      	b.n	80018ae <kstream_destroy_handle.isra.0+0x6>
 80018d6:	bd70      	pop	{r4, r5, r6, pc}

080018d8 <kstream_get_size_internal>:
 80018d8:	b672      	cpsid	i
 80018da:	e890 000c 	ldmia.w	r0, {r2, r3}
 80018de:	4293      	cmp	r3, r2
 80018e0:	bf89      	itett	hi
 80018e2:	6880      	ldrhi	r0, [r0, #8]
 80018e4:	1ad0      	subls	r0, r2, r3
 80018e6:	1880      	addhi	r0, r0, r2
 80018e8:	1ac0      	subhi	r0, r0, r3
 80018ea:	b662      	cpsie	i
 80018ec:	4770      	bx	lr

080018ee <kstream_check_inform>:
 80018ee:	b510      	push	{r4, lr}
 80018f0:	b086      	sub	sp, #24
 80018f2:	4604      	mov	r4, r0
 80018f4:	f7ff fff0 	bl	80018d8 <kstream_get_size_internal>
 80018f8:	b1a8      	cbz	r0, 8001926 <kstream_check_inform+0x38>
 80018fa:	69a3      	ldr	r3, [r4, #24]
 80018fc:	1c5a      	adds	r2, r3, #1
 80018fe:	d012      	beq.n	8001926 <kstream_check_inform+0x38>
 8001900:	9301      	str	r3, [sp, #4]
 8001902:	f894 3020 	ldrb.w	r3, [r4, #32]
 8001906:	9005      	str	r0, [sp, #20]
 8001908:	041b      	lsls	r3, r3, #16
 800190a:	f043 0301 	orr.w	r3, r3, #1
 800190e:	9302      	str	r3, [sp, #8]
 8001910:	69e3      	ldr	r3, [r4, #28]
 8001912:	f06f 0002 	mvn.w	r0, #2
 8001916:	9303      	str	r3, [sp, #12]
 8001918:	f04f 33ff 	mov.w	r3, #4294967295
 800191c:	61a3      	str	r3, [r4, #24]
 800191e:	a901      	add	r1, sp, #4
 8001920:	9404      	str	r4, [sp, #16]
 8001922:	f7ff fedd 	bl	80016e0 <kipc_post>
 8001926:	b006      	add	sp, #24
 8001928:	bd10      	pop	{r4, pc}

0800192a <kstream_get_size>:
 800192a:	f7ff bfd5 	b.w	80018d8 <kstream_get_size_internal>

0800192e <kstream_get_free>:
 800192e:	b672      	cpsid	i
 8001930:	6841      	ldr	r1, [r0, #4]
 8001932:	6803      	ldr	r3, [r0, #0]
 8001934:	4299      	cmp	r1, r3
 8001936:	bf97      	itett	ls
 8001938:	6882      	ldrls	r2, [r0, #8]
 800193a:	f101 30ff 	addhi.w	r0, r1, #4294967295
 800193e:	1888      	addls	r0, r1, r2
 8001940:	f100 30ff 	addls.w	r0, r0, #4294967295
 8001944:	1ac0      	subs	r0, r0, r3
 8001946:	b662      	cpsie	i
 8001948:	4770      	bx	lr

0800194a <kstream_lock_release>:
 800194a:	7c03      	ldrb	r3, [r0, #16]
 800194c:	b570      	push	{r4, r5, r6, lr}
 800194e:	2b01      	cmp	r3, #1
 8001950:	4604      	mov	r4, r0
 8001952:	d002      	beq.n	800195a <kstream_lock_release+0x10>
 8001954:	2b02      	cmp	r3, #2
 8001956:	d00b      	beq.n	8001970 <kstream_lock_release+0x26>
 8001958:	e017      	b.n	800198a <kstream_lock_release+0x40>
 800195a:	6885      	ldr	r5, [r0, #8]
 800195c:	696e      	ldr	r6, [r5, #20]
 800195e:	f105 0014 	add.w	r0, r5, #20
 8001962:	42a6      	cmp	r6, r4
 8001964:	d00a      	beq.n	800197c <kstream_lock_release+0x32>
 8001966:	616c      	str	r4, [r5, #20]
 8001968:	f7ff ff8d 	bl	8001886 <dlist_remove_head>
 800196c:	616e      	str	r6, [r5, #20]
 800196e:	e00c      	b.n	800198a <kstream_lock_release+0x40>
 8001970:	6885      	ldr	r5, [r0, #8]
 8001972:	692e      	ldr	r6, [r5, #16]
 8001974:	f105 0010 	add.w	r0, r5, #16
 8001978:	42a6      	cmp	r6, r4
 800197a:	d102      	bne.n	8001982 <kstream_lock_release+0x38>
 800197c:	f7ff ff83 	bl	8001886 <dlist_remove_head>
 8001980:	e003      	b.n	800198a <kstream_lock_release+0x40>
 8001982:	612c      	str	r4, [r5, #16]
 8001984:	f7ff ff7f 	bl	8001886 <dlist_remove_head>
 8001988:	612e      	str	r6, [r5, #16]
 800198a:	2300      	movs	r3, #0
 800198c:	7423      	strb	r3, [r4, #16]
 800198e:	bd70      	pop	{r4, r5, r6, pc}

08001990 <kstream_create>:
 8001990:	b538      	push	{r3, r4, r5, lr}
 8001992:	4605      	mov	r5, r0
 8001994:	2024      	movs	r0, #36	; 0x24
 8001996:	f7ff f828 	bl	80009ea <kmalloc>
 800199a:	4604      	mov	r4, r0
 800199c:	b198      	cbz	r0, 80019c6 <kstream_create+0x36>
 800199e:	4628      	mov	r0, r5
 80019a0:	f7ff f823 	bl	80009ea <kmalloc>
 80019a4:	60e0      	str	r0, [r4, #12]
 80019a6:	b918      	cbnz	r0, 80019b0 <kstream_create+0x20>
 80019a8:	4620      	mov	r0, r4
 80019aa:	f7ff f824 	bl	80009f6 <kfree>
 80019ae:	e00a      	b.n	80019c6 <kstream_create+0x36>
 80019b0:	2300      	movs	r3, #0
 80019b2:	f04f 32ff 	mov.w	r2, #4294967295
 80019b6:	6063      	str	r3, [r4, #4]
 80019b8:	6023      	str	r3, [r4, #0]
 80019ba:	60a5      	str	r5, [r4, #8]
 80019bc:	61a2      	str	r2, [r4, #24]
 80019be:	6163      	str	r3, [r4, #20]
 80019c0:	6123      	str	r3, [r4, #16]
 80019c2:	4620      	mov	r0, r4
 80019c4:	bd38      	pop	{r3, r4, r5, pc}
 80019c6:	f04f 30ff 	mov.w	r0, #4294967295
 80019ca:	bd38      	pop	{r3, r4, r5, pc}

080019cc <kstream_open>:
 80019cc:	b538      	push	{r3, r4, r5, lr}
 80019ce:	1c4b      	adds	r3, r1, #1
 80019d0:	4605      	mov	r5, r0
 80019d2:	460c      	mov	r4, r1
 80019d4:	d102      	bne.n	80019dc <kstream_open+0x10>
 80019d6:	f04f 30ff 	mov.w	r0, #4294967295
 80019da:	bd38      	pop	{r3, r4, r5, pc}
 80019dc:	201c      	movs	r0, #28
 80019de:	f7ff f804 	bl	80009ea <kmalloc>
 80019e2:	2800      	cmp	r0, #0
 80019e4:	d0f7      	beq.n	80019d6 <kstream_open+0xa>
 80019e6:	2300      	movs	r3, #0
 80019e8:	60c5      	str	r5, [r0, #12]
 80019ea:	6084      	str	r4, [r0, #8]
 80019ec:	7403      	strb	r3, [r0, #16]
 80019ee:	bd38      	pop	{r3, r4, r5, pc}

080019f0 <kstream_close>:
 80019f0:	1c4b      	adds	r3, r1, #1
 80019f2:	d00f      	beq.n	8001a14 <kstream_close+0x24>
 80019f4:	688b      	ldr	r3, [r1, #8]
 80019f6:	3301      	adds	r3, #1
 80019f8:	d102      	bne.n	8001a00 <kstream_close+0x10>
 80019fa:	f06f 0009 	mvn.w	r0, #9
 80019fe:	e004      	b.n	8001a0a <kstream_close+0x1a>
 8001a00:	68cb      	ldr	r3, [r1, #12]
 8001a02:	4283      	cmp	r3, r0
 8001a04:	d003      	beq.n	8001a0e <kstream_close+0x1e>
 8001a06:	f06f 000b 	mvn.w	r0, #11
 8001a0a:	f003 b8cc 	b.w	8004ba6 <error>
 8001a0e:	4608      	mov	r0, r1
 8001a10:	f7fe bff1 	b.w	80009f6 <kfree>
 8001a14:	4770      	bx	lr

08001a16 <kstream_listen>:
 8001a16:	b510      	push	{r4, lr}
 8001a18:	698c      	ldr	r4, [r1, #24]
 8001a1a:	3401      	adds	r4, #1
 8001a1c:	d005      	beq.n	8001a2a <kstream_listen+0x14>
 8001a1e:	e8bd 4010 	ldmia.w	sp!, {r4, lr}
 8001a22:	f06f 000b 	mvn.w	r0, #11
 8001a26:	f003 b8be 	b.w	8004ba6 <error>
 8001a2a:	6188      	str	r0, [r1, #24]
 8001a2c:	61ca      	str	r2, [r1, #28]
 8001a2e:	f881 3020 	strb.w	r3, [r1, #32]
 8001a32:	4608      	mov	r0, r1
 8001a34:	e8bd 4010 	ldmia.w	sp!, {r4, lr}
 8001a38:	f7ff bf59 	b.w	80018ee <kstream_check_inform>

08001a3c <kstream_stop_listen>:
 8001a3c:	698b      	ldr	r3, [r1, #24]
 8001a3e:	4283      	cmp	r3, r0
 8001a40:	d003      	beq.n	8001a4a <kstream_stop_listen+0xe>
 8001a42:	f06f 000b 	mvn.w	r0, #11
 8001a46:	f003 b8ae 	b.w	8004ba6 <error>
 8001a4a:	f04f 33ff 	mov.w	r3, #4294967295
 8001a4e:	618b      	str	r3, [r1, #24]
 8001a50:	4770      	bx	lr

08001a52 <kstream_write_no_block_internal>:
 8001a52:	e92d 41f0 	stmdb	sp!, {r4, r5, r6, r7, r8, lr}
 8001a56:	4607      	mov	r7, r0
 8001a58:	460e      	mov	r6, r1
 8001a5a:	4690      	mov	r8, r2
 8001a5c:	b672      	cpsid	i
 8001a5e:	4614      	mov	r4, r2
 8001a60:	2c00      	cmp	r4, #0
 8001a62:	d038      	beq.n	8001ad6 <kstream_write_no_block_internal+0x84>
 8001a64:	68bb      	ldr	r3, [r7, #8]
 8001a66:	695d      	ldr	r5, [r3, #20]
 8001a68:	2d00      	cmp	r5, #0
 8001a6a:	d034      	beq.n	8001ad6 <kstream_write_no_block_internal+0x84>
 8001a6c:	69aa      	ldr	r2, [r5, #24]
 8001a6e:	6968      	ldr	r0, [r5, #20]
 8001a70:	42a2      	cmp	r2, r4
 8001a72:	4631      	mov	r1, r6
 8001a74:	d80e      	bhi.n	8001a94 <kstream_write_no_block_internal+0x42>
 8001a76:	f003 fc2f 	bl	80052d8 <memcpy>
 8001a7a:	68b8      	ldr	r0, [r7, #8]
 8001a7c:	69ab      	ldr	r3, [r5, #24]
 8001a7e:	3014      	adds	r0, #20
 8001a80:	1ae4      	subs	r4, r4, r3
 8001a82:	441e      	add	r6, r3
 8001a84:	f7ff feff 	bl	8001886 <dlist_remove_head>
 8001a88:	68e8      	ldr	r0, [r5, #12]
 8001a8a:	f7ff f977 	bl	8000d7c <kprocess_wakeup>
 8001a8e:	2300      	movs	r3, #0
 8001a90:	742b      	strb	r3, [r5, #16]
 8001a92:	e7e5      	b.n	8001a60 <kstream_write_no_block_internal+0xe>
 8001a94:	4622      	mov	r2, r4
 8001a96:	f003 fc1f 	bl	80052d8 <memcpy>
 8001a9a:	696b      	ldr	r3, [r5, #20]
 8001a9c:	4426      	add	r6, r4
 8001a9e:	4423      	add	r3, r4
 8001aa0:	616b      	str	r3, [r5, #20]
 8001aa2:	69ab      	ldr	r3, [r5, #24]
 8001aa4:	1b1b      	subs	r3, r3, r4
 8001aa6:	61ab      	str	r3, [r5, #24]
 8001aa8:	2400      	movs	r4, #0
 8001aaa:	e014      	b.n	8001ad6 <kstream_write_no_block_internal+0x84>
 8001aac:	68ba      	ldr	r2, [r7, #8]
 8001aae:	6815      	ldr	r5, [r2, #0]
 8001ab0:	6891      	ldr	r1, [r2, #8]
 8001ab2:	1c6b      	adds	r3, r5, #1
 8001ab4:	428b      	cmp	r3, r1
 8001ab6:	bf34      	ite	cc
 8001ab8:	469e      	movcc	lr, r3
 8001aba:	f04f 0e00 	movcs.w	lr, #0
 8001abe:	6850      	ldr	r0, [r2, #4]
 8001ac0:	4586      	cmp	lr, r0
 8001ac2:	d00a      	beq.n	8001ada <kstream_write_no_block_internal+0x88>
 8001ac4:	428b      	cmp	r3, r1
 8001ac6:	bf28      	it	cs
 8001ac8:	2300      	movcs	r3, #0
 8001aca:	6013      	str	r3, [r2, #0]
 8001acc:	68d0      	ldr	r0, [r2, #12]
 8001ace:	f816 3b01 	ldrb.w	r3, [r6], #1
 8001ad2:	3c01      	subs	r4, #1
 8001ad4:	5543      	strb	r3, [r0, r5]
 8001ad6:	2c00      	cmp	r4, #0
 8001ad8:	d1e8      	bne.n	8001aac <kstream_write_no_block_internal+0x5a>
 8001ada:	b662      	cpsie	i
 8001adc:	ebc4 0008 	rsb	r0, r4, r8
 8001ae0:	e8bd 81f0 	ldmia.w	sp!, {r4, r5, r6, r7, r8, pc}

08001ae4 <kstream_write_no_block>:
 8001ae4:	b538      	push	{r3, r4, r5, lr}
 8001ae6:	4605      	mov	r5, r0
 8001ae8:	f7ff ffb3 	bl	8001a52 <kstream_write_no_block_internal>
 8001aec:	4604      	mov	r4, r0
 8001aee:	68a8      	ldr	r0, [r5, #8]
 8001af0:	f7ff fefd 	bl	80018ee <kstream_check_inform>
 8001af4:	4620      	mov	r0, r4
 8001af6:	bd38      	pop	{r3, r4, r5, pc}

08001af8 <kstream_write>:
 8001af8:	b5f8      	push	{r3, r4, r5, r6, r7, lr}
 8001afa:	460c      	mov	r4, r1
 8001afc:	4607      	mov	r7, r0
 8001afe:	4616      	mov	r6, r2
 8001b00:	4608      	mov	r0, r1
 8001b02:	4611      	mov	r1, r2
 8001b04:	461a      	mov	r2, r3
 8001b06:	461d      	mov	r5, r3
 8001b08:	f7ff ffa3 	bl	8001a52 <kstream_write_no_block_internal>
 8001b0c:	1a2d      	subs	r5, r5, r0
 8001b0e:	61a5      	str	r5, [r4, #24]
 8001b10:	b1dd      	cbz	r5, 8001b4a <kstream_write+0x52>
 8001b12:	4430      	add	r0, r6
 8001b14:	2302      	movs	r3, #2
 8001b16:	6160      	str	r0, [r4, #20]
 8001b18:	7423      	strb	r3, [r4, #16]
 8001b1a:	4638      	mov	r0, r7
 8001b1c:	2100      	movs	r1, #0
 8001b1e:	2250      	movs	r2, #80	; 0x50
 8001b20:	4623      	mov	r3, r4
 8001b22:	f7ff fa35 	bl	8000f90 <kprocess_sleep>
 8001b26:	b672      	cpsid	i
 8001b28:	68a3      	ldr	r3, [r4, #8]
 8001b2a:	691a      	ldr	r2, [r3, #16]
 8001b2c:	b91a      	cbnz	r2, 8001b36 <kstream_write+0x3e>
 8001b2e:	611c      	str	r4, [r3, #16]
 8001b30:	6024      	str	r4, [r4, #0]
 8001b32:	6064      	str	r4, [r4, #4]
 8001b34:	e008      	b.n	8001b48 <kstream_write+0x50>
 8001b36:	6062      	str	r2, [r4, #4]
 8001b38:	691a      	ldr	r2, [r3, #16]
 8001b3a:	6812      	ldr	r2, [r2, #0]
 8001b3c:	6022      	str	r2, [r4, #0]
 8001b3e:	691a      	ldr	r2, [r3, #16]
 8001b40:	6812      	ldr	r2, [r2, #0]
 8001b42:	6054      	str	r4, [r2, #4]
 8001b44:	691b      	ldr	r3, [r3, #16]
 8001b46:	601c      	str	r4, [r3, #0]
 8001b48:	b662      	cpsie	i
 8001b4a:	68a0      	ldr	r0, [r4, #8]
 8001b4c:	e8bd 40f8 	ldmia.w	sp!, {r3, r4, r5, r6, r7, lr}
 8001b50:	f7ff becd 	b.w	80018ee <kstream_check_inform>

08001b54 <kstream_read_no_block>:
 8001b54:	e92d 43f8 	stmdb	sp!, {r3, r4, r5, r6, r7, r8, r9, lr}
 8001b58:	4606      	mov	r6, r0
 8001b5a:	4617      	mov	r7, r2
 8001b5c:	b672      	cpsid	i
 8001b5e:	4614      	mov	r4, r2
 8001b60:	4688      	mov	r8, r1
 8001b62:	b344      	cbz	r4, 8001bb6 <kstream_read_no_block+0x62>
 8001b64:	68b3      	ldr	r3, [r6, #8]
 8001b66:	6858      	ldr	r0, [r3, #4]
 8001b68:	681a      	ldr	r2, [r3, #0]
 8001b6a:	4282      	cmp	r2, r0
 8001b6c:	d023      	beq.n	8001bb6 <kstream_read_no_block+0x62>
 8001b6e:	689d      	ldr	r5, [r3, #8]
 8001b70:	1c42      	adds	r2, r0, #1
 8001b72:	42aa      	cmp	r2, r5
 8001b74:	bf28      	it	cs
 8001b76:	2200      	movcs	r2, #0
 8001b78:	f8d3 e00c 	ldr.w	lr, [r3, #12]
 8001b7c:	605a      	str	r2, [r3, #4]
 8001b7e:	f81e 3000 	ldrb.w	r3, [lr, r0]
 8001b82:	3c01      	subs	r4, #1
 8001b84:	f801 3b01 	strb.w	r3, [r1], #1
 8001b88:	e7ea      	b.n	8001b60 <kstream_read_no_block+0xc>
 8001b8a:	68b3      	ldr	r3, [r6, #8]
 8001b8c:	691d      	ldr	r5, [r3, #16]
 8001b8e:	b1fd      	cbz	r5, 8001bd0 <kstream_read_no_block+0x7c>
 8001b90:	69aa      	ldr	r2, [r5, #24]
 8001b92:	4640      	mov	r0, r8
 8001b94:	42a2      	cmp	r2, r4
 8001b96:	6969      	ldr	r1, [r5, #20]
 8001b98:	d810      	bhi.n	8001bbc <kstream_read_no_block+0x68>
 8001b9a:	f003 fb9d 	bl	80052d8 <memcpy>
 8001b9e:	68b0      	ldr	r0, [r6, #8]
 8001ba0:	69ab      	ldr	r3, [r5, #24]
 8001ba2:	3010      	adds	r0, #16
 8001ba4:	1ae4      	subs	r4, r4, r3
 8001ba6:	4498      	add	r8, r3
 8001ba8:	f7ff fe6d 	bl	8001886 <dlist_remove_head>
 8001bac:	68e8      	ldr	r0, [r5, #12]
 8001bae:	f7ff f8e5 	bl	8000d7c <kprocess_wakeup>
 8001bb2:	2300      	movs	r3, #0
 8001bb4:	742b      	strb	r3, [r5, #16]
 8001bb6:	2c00      	cmp	r4, #0
 8001bb8:	d1e7      	bne.n	8001b8a <kstream_read_no_block+0x36>
 8001bba:	e009      	b.n	8001bd0 <kstream_read_no_block+0x7c>
 8001bbc:	4622      	mov	r2, r4
 8001bbe:	f003 fb8b 	bl	80052d8 <memcpy>
 8001bc2:	69ab      	ldr	r3, [r5, #24]
 8001bc4:	6968      	ldr	r0, [r5, #20]
 8001bc6:	1b1b      	subs	r3, r3, r4
 8001bc8:	4420      	add	r0, r4
 8001bca:	61ab      	str	r3, [r5, #24]
 8001bcc:	6168      	str	r0, [r5, #20]
 8001bce:	2400      	movs	r4, #0
 8001bd0:	42bc      	cmp	r4, r7
 8001bd2:	d23d      	bcs.n	8001c50 <kstream_read_no_block+0xfc>
 8001bd4:	68b2      	ldr	r2, [r6, #8]
 8001bd6:	6853      	ldr	r3, [r2, #4]
 8001bd8:	6815      	ldr	r5, [r2, #0]
 8001bda:	42ab      	cmp	r3, r5
 8001bdc:	bf9c      	itt	ls
 8001bde:	6892      	ldrls	r2, [r2, #8]
 8001be0:	189b      	addls	r3, r3, r2
 8001be2:	3b01      	subs	r3, #1
 8001be4:	1b5d      	subs	r5, r3, r5
 8001be6:	68b3      	ldr	r3, [r6, #8]
 8001be8:	f8d3 8010 	ldr.w	r8, [r3, #16]
 8001bec:	f1b8 0f00 	cmp.w	r8, #0
 8001bf0:	d02e      	beq.n	8001c50 <kstream_read_no_block+0xfc>
 8001bf2:	b36d      	cbz	r5, 8001c50 <kstream_read_no_block+0xfc>
 8001bf4:	f8d8 3018 	ldr.w	r3, [r8, #24]
 8001bf8:	b1d3      	cbz	r3, 8001c30 <kstream_read_no_block+0xdc>
 8001bfa:	68b3      	ldr	r3, [r6, #8]
 8001bfc:	6818      	ldr	r0, [r3, #0]
 8001bfe:	6899      	ldr	r1, [r3, #8]
 8001c00:	1c42      	adds	r2, r0, #1
 8001c02:	428a      	cmp	r2, r1
 8001c04:	bf28      	it	cs
 8001c06:	2200      	movcs	r2, #0
 8001c08:	f8d3 e00c 	ldr.w	lr, [r3, #12]
 8001c0c:	601a      	str	r2, [r3, #0]
 8001c0e:	f8d8 3014 	ldr.w	r3, [r8, #20]
 8001c12:	3d01      	subs	r5, #1
 8001c14:	f103 0201 	add.w	r2, r3, #1
 8001c18:	f8c8 2014 	str.w	r2, [r8, #20]
 8001c1c:	781b      	ldrb	r3, [r3, #0]
 8001c1e:	f80e 3000 	strb.w	r3, [lr, r0]
 8001c22:	f8d8 3018 	ldr.w	r3, [r8, #24]
 8001c26:	f103 33ff 	add.w	r3, r3, #4294967295
 8001c2a:	f8c8 3018 	str.w	r3, [r8, #24]
 8001c2e:	d1e1      	bne.n	8001bf4 <kstream_read_no_block+0xa0>
 8001c30:	f8d8 9018 	ldr.w	r9, [r8, #24]
 8001c34:	f1b9 0f00 	cmp.w	r9, #0
 8001c38:	d1d5      	bne.n	8001be6 <kstream_read_no_block+0x92>
 8001c3a:	68b0      	ldr	r0, [r6, #8]
 8001c3c:	3010      	adds	r0, #16
 8001c3e:	f7ff fe22 	bl	8001886 <dlist_remove_head>
 8001c42:	f8d8 000c 	ldr.w	r0, [r8, #12]
 8001c46:	f7ff f899 	bl	8000d7c <kprocess_wakeup>
 8001c4a:	f888 9010 	strb.w	r9, [r8, #16]
 8001c4e:	e7ca      	b.n	8001be6 <kstream_read_no_block+0x92>
 8001c50:	b662      	cpsie	i
 8001c52:	1b38      	subs	r0, r7, r4
 8001c54:	e8bd 83f8 	ldmia.w	sp!, {r3, r4, r5, r6, r7, r8, r9, pc}

08001c58 <kstream_read>:
 8001c58:	b5f8      	push	{r3, r4, r5, r6, r7, lr}
 8001c5a:	460c      	mov	r4, r1
 8001c5c:	4607      	mov	r7, r0
 8001c5e:	4616      	mov	r6, r2
 8001c60:	4608      	mov	r0, r1
 8001c62:	4611      	mov	r1, r2
 8001c64:	461a      	mov	r2, r3
 8001c66:	461d      	mov	r5, r3
 8001c68:	f7ff ff74 	bl	8001b54 <kstream_read_no_block>
 8001c6c:	1a2d      	subs	r5, r5, r0
 8001c6e:	61a5      	str	r5, [r4, #24]
 8001c70:	b1dd      	cbz	r5, 8001caa <kstream_read+0x52>
 8001c72:	4430      	add	r0, r6
 8001c74:	2301      	movs	r3, #1
 8001c76:	6160      	str	r0, [r4, #20]
 8001c78:	7423      	strb	r3, [r4, #16]
 8001c7a:	4638      	mov	r0, r7
 8001c7c:	2100      	movs	r1, #0
 8001c7e:	2250      	movs	r2, #80	; 0x50
 8001c80:	4623      	mov	r3, r4
 8001c82:	f7ff f985 	bl	8000f90 <kprocess_sleep>
 8001c86:	b672      	cpsid	i
 8001c88:	68a3      	ldr	r3, [r4, #8]
 8001c8a:	695a      	ldr	r2, [r3, #20]
 8001c8c:	b91a      	cbnz	r2, 8001c96 <kstream_read+0x3e>
 8001c8e:	615c      	str	r4, [r3, #20]
 8001c90:	6024      	str	r4, [r4, #0]
 8001c92:	6064      	str	r4, [r4, #4]
 8001c94:	e008      	b.n	8001ca8 <kstream_read+0x50>
 8001c96:	6062      	str	r2, [r4, #4]
 8001c98:	695a      	ldr	r2, [r3, #20]
 8001c9a:	6812      	ldr	r2, [r2, #0]
 8001c9c:	6022      	str	r2, [r4, #0]
 8001c9e:	695a      	ldr	r2, [r3, #20]
 8001ca0:	6812      	ldr	r2, [r2, #0]
 8001ca2:	6054      	str	r4, [r2, #4]
 8001ca4:	695b      	ldr	r3, [r3, #20]
 8001ca6:	601c      	str	r4, [r3, #0]
 8001ca8:	b662      	cpsie	i
 8001caa:	bdf8      	pop	{r3, r4, r5, r6, r7, pc}

08001cac <kstream_flush>:
 8001cac:	b538      	push	{r3, r4, r5, lr}
 8001cae:	f04f 33ff 	mov.w	r3, #4294967295
 8001cb2:	4604      	mov	r4, r0
 8001cb4:	6183      	str	r3, [r0, #24]
 8001cb6:	b672      	cpsid	i
 8001cb8:	6843      	ldr	r3, [r0, #4]
 8001cba:	6003      	str	r3, [r0, #0]
 8001cbc:	6925      	ldr	r5, [r4, #16]
 8001cbe:	b14d      	cbz	r5, 8001cd4 <kstream_flush+0x28>
 8001cc0:	2300      	movs	r3, #0
 8001cc2:	f104 0010 	add.w	r0, r4, #16
 8001cc6:	742b      	strb	r3, [r5, #16]
 8001cc8:	f7ff fddd 	bl	8001886 <dlist_remove_head>
 8001ccc:	68e8      	ldr	r0, [r5, #12]
 8001cce:	f7ff f855 	bl	8000d7c <kprocess_wakeup>
 8001cd2:	e7f3      	b.n	8001cbc <kstream_flush+0x10>
 8001cd4:	b662      	cpsie	i
 8001cd6:	bd38      	pop	{r3, r4, r5, pc}

08001cd8 <kstream_destroy>:
 8001cd8:	b538      	push	{r3, r4, r5, lr}
 8001cda:	1c43      	adds	r3, r0, #1
 8001cdc:	4604      	mov	r4, r0
 8001cde:	d012      	beq.n	8001d06 <kstream_destroy+0x2e>
 8001ce0:	f100 0510 	add.w	r5, r0, #16
 8001ce4:	4628      	mov	r0, r5
 8001ce6:	4629      	mov	r1, r5
 8001ce8:	f7ff fdde 	bl	80018a8 <kstream_destroy_handle.isra.0>
 8001cec:	4628      	mov	r0, r5
 8001cee:	f104 0114 	add.w	r1, r4, #20
 8001cf2:	f7ff fdd9 	bl	80018a8 <kstream_destroy_handle.isra.0>
 8001cf6:	68e0      	ldr	r0, [r4, #12]
 8001cf8:	f7fe fe7d 	bl	80009f6 <kfree>
 8001cfc:	4620      	mov	r0, r4
 8001cfe:	e8bd 4038 	ldmia.w	sp!, {r3, r4, r5, lr}
 8001d02:	f7fe be78 	b.w	80009f6 <kfree>
 8001d06:	bd38      	pop	{r3, r4, r5, pc}

08001d08 <kobject_init>:
 8001d08:	4b06      	ldr	r3, [pc, #24]	; (8001d24 <kobject_init+0x1c>)
 8001d0a:	f04f 32ff 	mov.w	r2, #4294967295
 8001d0e:	f8c3 20f8 	str.w	r2, [r3, #248]	; 0xf8
 8001d12:	f8c3 20fc 	str.w	r2, [r3, #252]	; 0xfc
 8001d16:	f8c3 2100 	str.w	r2, [r3, #256]	; 0x100
 8001d1a:	f8c3 2104 	str.w	r2, [r3, #260]	; 0x104
 8001d1e:	f8c3 2108 	str.w	r2, [r3, #264]	; 0x108
 8001d22:	4770      	bx	lr
 8001d24:	2000000c 	.word	0x2000000c

08001d28 <kobject_set>:
 8001d28:	2904      	cmp	r1, #4
 8001d2a:	dc12      	bgt.n	8001d52 <kobject_set+0x2a>
 8001d2c:	0089      	lsls	r1, r1, #2
 8001d2e:	f101 5100 	add.w	r1, r1, #536870912	; 0x20000000
 8001d32:	310c      	adds	r1, #12
 8001d34:	f8d1 30f8 	ldr.w	r3, [r1, #248]	; 0xf8
 8001d38:	f1b3 3fff 	cmp.w	r3, #4294967295
 8001d3c:	d003      	beq.n	8001d46 <kobject_set+0x1e>
 8001d3e:	4283      	cmp	r3, r0
 8001d40:	d104      	bne.n	8001d4c <kobject_set+0x24>
 8001d42:	1c53      	adds	r3, r2, #1
 8001d44:	d102      	bne.n	8001d4c <kobject_set+0x24>
 8001d46:	f8c1 20f8 	str.w	r2, [r1, #248]	; 0xf8
 8001d4a:	4770      	bx	lr
 8001d4c:	f06f 000b 	mvn.w	r0, #11
 8001d50:	e001      	b.n	8001d56 <kobject_set+0x2e>
 8001d52:	f06f 000a 	mvn.w	r0, #10
 8001d56:	f002 bf26 	b.w	8004ba6 <error>
 8001d5a:	0000      	movs	r0, r0

08001d5c <kobject_get>:
 8001d5c:	2804      	cmp	r0, #4
 8001d5e:	b508      	push	{r3, lr}
 8001d60:	dc04      	bgt.n	8001d6c <kobject_get+0x10>
 8001d62:	4b06      	ldr	r3, [pc, #24]	; (8001d7c <kobject_get+0x20>)
 8001d64:	303e      	adds	r0, #62	; 0x3e
 8001d66:	f853 0020 	ldr.w	r0, [r3, r0, lsl #2]
 8001d6a:	bd08      	pop	{r3, pc}
 8001d6c:	f06f 000a 	mvn.w	r0, #10
 8001d70:	f002 ff19 	bl	8004ba6 <error>
 8001d74:	f04f 30ff 	mov.w	r0, #4294967295
 8001d78:	bd08      	pop	{r3, pc}
 8001d7a:	bf00      	nop
 8001d7c:	2000000c 	.word	0x2000000c

08001d80 <kio_create>:
 8001d80:	b570      	push	{r4, r5, r6, lr}
 8001d82:	4606      	mov	r6, r0
 8001d84:	f7ff f924 	bl	8000fd0 <kprocess_get_current>
 8001d88:	4604      	mov	r4, r0
 8001d8a:	2018      	movs	r0, #24
 8001d8c:	f7fe fe2d 	bl	80009ea <kmalloc>
 8001d90:	4605      	mov	r5, r0
 8001d92:	b188      	cbz	r0, 8001db8 <kio_create+0x38>
 8001d94:	2300      	movs	r3, #0
 8001d96:	3614      	adds	r6, #20
 8001d98:	6104      	str	r4, [r0, #16]
 8001d9a:	60c4      	str	r4, [r0, #12]
 8001d9c:	7503      	strb	r3, [r0, #20]
 8001d9e:	4630      	mov	r0, r6
 8001da0:	f7fe fe23 	bl	80009ea <kmalloc>
 8001da4:	4604      	mov	r4, r0
 8001da6:	60a8      	str	r0, [r5, #8]
 8001da8:	b920      	cbnz	r0, 8001db4 <kio_create+0x34>
 8001daa:	4628      	mov	r0, r5
 8001dac:	f7fe fe23 	bl	80009f6 <kfree>
 8001db0:	4620      	mov	r0, r4
 8001db2:	bd70      	pop	{r4, r5, r6, pc}
 8001db4:	6005      	str	r5, [r0, #0]
 8001db6:	6046      	str	r6, [r0, #4]
 8001db8:	68a8      	ldr	r0, [r5, #8]
 8001dba:	bd70      	pop	{r4, r5, r6, pc}

08001dbc <kio_send>:
 8001dbc:	b538      	push	{r3, r4, r5, lr}
 8001dbe:	680c      	ldr	r4, [r1, #0]
 8001dc0:	6923      	ldr	r3, [r4, #16]
 8001dc2:	4298      	cmp	r0, r3
 8001dc4:	d005      	beq.n	8001dd2 <kio_send+0x16>
 8001dc6:	f06f 000b 	mvn.w	r0, #11
 8001dca:	f002 feec 	bl	8004ba6 <error>
 8001dce:	2500      	movs	r5, #0
 8001dd0:	e00d      	b.n	8001dee <kio_send+0x32>
 8001dd2:	7d25      	ldrb	r5, [r4, #20]
 8001dd4:	b14d      	cbz	r5, 8001dea <kio_send+0x2e>
 8001dd6:	68e3      	ldr	r3, [r4, #12]
 8001dd8:	429a      	cmp	r2, r3
 8001dda:	d106      	bne.n	8001dea <kio_send+0x2e>
 8001ddc:	68a0      	ldr	r0, [r4, #8]
 8001dde:	f7fe fe0a 	bl	80009f6 <kfree>
 8001de2:	4620      	mov	r0, r4
 8001de4:	f7fe fe07 	bl	80009f6 <kfree>
 8001de8:	e001      	b.n	8001dee <kio_send+0x32>
 8001dea:	6122      	str	r2, [r4, #16]
 8001dec:	2501      	movs	r5, #1
 8001dee:	4628      	mov	r0, r5
 8001df0:	bd38      	pop	{r3, r4, r5, pc}

08001df2 <kio_destroy>:
 8001df2:	b538      	push	{r3, r4, r5, lr}
 8001df4:	b300      	cbz	r0, 8001e38 <kio_destroy+0x46>
 8001df6:	6804      	ldr	r4, [r0, #0]
 8001df8:	68e5      	ldr	r5, [r4, #12]
 8001dfa:	f7ff f8e9 	bl	8000fd0 <kprocess_get_current>
 8001dfe:	4285      	cmp	r5, r0
 8001e00:	d002      	beq.n	8001e08 <kio_destroy+0x16>
 8001e02:	f06f 000b 	mvn.w	r0, #11
 8001e06:	e00b      	b.n	8001e20 <kio_destroy+0x2e>
 8001e08:	b672      	cpsid	i
 8001e0a:	68e3      	ldr	r3, [r4, #12]
 8001e0c:	6922      	ldr	r2, [r4, #16]
 8001e0e:	429a      	cmp	r2, r3
 8001e10:	bf1a      	itte	ne
 8001e12:	2301      	movne	r3, #1
 8001e14:	7523      	strbne	r3, [r4, #20]
 8001e16:	2300      	moveq	r3, #0
 8001e18:	b662      	cpsie	i
 8001e1a:	b12b      	cbz	r3, 8001e28 <kio_destroy+0x36>
 8001e1c:	f06f 0014 	mvn.w	r0, #20
 8001e20:	e8bd 4038 	ldmia.w	sp!, {r3, r4, r5, lr}
 8001e24:	f002 bebf 	b.w	8004ba6 <error>
 8001e28:	68a0      	ldr	r0, [r4, #8]
 8001e2a:	f7fe fde4 	bl	80009f6 <kfree>
 8001e2e:	4620      	mov	r0, r4
 8001e30:	e8bd 4038 	ldmia.w	sp!, {r3, r4, r5, lr}
 8001e34:	f7fe bddf 	b.w	80009f6 <kfree>
 8001e38:	bd38      	pop	{r3, r4, r5, pc}
 8001e3a:	0000      	movs	r0, r0

08001e3c <lib_systime_add>:
 8001e3c:	680b      	ldr	r3, [r1, #0]
 8001e3e:	b510      	push	{r4, lr}
 8001e40:	6804      	ldr	r4, [r0, #0]
 8001e42:	6840      	ldr	r0, [r0, #4]
 8001e44:	4423      	add	r3, r4
 8001e46:	6013      	str	r3, [r2, #0]
 8001e48:	684b      	ldr	r3, [r1, #4]
 8001e4a:	4403      	add	r3, r0
 8001e4c:	6053      	str	r3, [r2, #4]
 8001e4e:	6853      	ldr	r3, [r2, #4]
 8001e50:	4905      	ldr	r1, [pc, #20]	; (8001e68 <lib_systime_add+0x2c>)
 8001e52:	428b      	cmp	r3, r1
 8001e54:	d907      	bls.n	8001e66 <lib_systime_add+0x2a>
 8001e56:	6811      	ldr	r1, [r2, #0]
 8001e58:	f5a3 2374 	sub.w	r3, r3, #999424	; 0xf4000
 8001e5c:	3101      	adds	r1, #1
 8001e5e:	6011      	str	r1, [r2, #0]
 8001e60:	f5a3 7310 	sub.w	r3, r3, #576	; 0x240
 8001e64:	e7f2      	b.n	8001e4c <lib_systime_add+0x10>
 8001e66:	bd10      	pop	{r4, pc}
 8001e68:	000f423f 	.word	0x000f423f

08001e6c <lib_us_to_systime>:
 8001e6c:	4a03      	ldr	r2, [pc, #12]	; (8001e7c <lib_us_to_systime+0x10>)
 8001e6e:	fbb0 f3f2 	udiv	r3, r0, r2
 8001e72:	600b      	str	r3, [r1, #0]
 8001e74:	fb02 0313 	mls	r3, r2, r3, r0
 8001e78:	604b      	str	r3, [r1, #4]
 8001e7a:	4770      	bx	lr
 8001e7c:	000f4240 	.word	0x000f4240

08001e80 <lib_ms_to_systime>:
 8001e80:	f44f 737a 	mov.w	r3, #1000	; 0x3e8
 8001e84:	fbb0 f2f3 	udiv	r2, r0, r3
 8001e88:	600a      	str	r2, [r1, #0]
 8001e8a:	fb03 0212 	mls	r2, r3, r2, r0
 8001e8e:	4353      	muls	r3, r2
 8001e90:	604b      	str	r3, [r1, #4]
 8001e92:	4770      	bx	lr

08001e94 <lib_systime_to_us>:
 8001e94:	f640 0262 	movw	r2, #2146	; 0x862
 8001e98:	6803      	ldr	r3, [r0, #0]
 8001e9a:	4293      	cmp	r3, r2
 8001e9c:	bf9d      	ittte	ls
 8001e9e:	6842      	ldrls	r2, [r0, #4]
 8001ea0:	4802      	ldrls	r0, [pc, #8]	; (8001eac <lib_systime_to_us+0x18>)
 8001ea2:	fb00 2003 	mlals	r0, r0, r3, r2
 8001ea6:	4802      	ldrhi	r0, [pc, #8]	; (8001eb0 <lib_systime_to_us+0x1c>)
 8001ea8:	4770      	bx	lr
 8001eaa:	bf00      	nop
 8001eac:	000f4240 	.word	0x000f4240
 8001eb0:	7fe95c80 	.word	0x7fe95c80

08001eb4 <lib_systime_to_ms>:
 8001eb4:	6803      	ldr	r3, [r0, #0]
 8001eb6:	4a06      	ldr	r2, [pc, #24]	; (8001ed0 <lib_systime_to_ms+0x1c>)
 8001eb8:	4293      	cmp	r3, r2
 8001eba:	bf9f      	itttt	ls
 8001ebc:	6840      	ldrls	r0, [r0, #4]
 8001ebe:	f44f 727a 	movls.w	r2, #1000	; 0x3e8
 8001ec2:	fbb0 f0f2 	udivls	r0, r0, r2
 8001ec6:	fb02 0003 	mlals	r0, r2, r3, r0
 8001eca:	bf88      	it	hi
 8001ecc:	4801      	ldrhi	r0, [pc, #4]	; (8001ed4 <lib_systime_to_ms+0x20>)
 8001ece:	4770      	bx	lr
 8001ed0:	0020c49a 	.word	0x0020c49a
 8001ed4:	7ffff990 	.word	0x7ffff990

08001ed8 <lib_systime_compare>:
 8001ed8:	680a      	ldr	r2, [r1, #0]
 8001eda:	6803      	ldr	r3, [r0, #0]
 8001edc:	429a      	cmp	r2, r3
 8001ede:	d80c      	bhi.n	8001efa <lib_systime_compare+0x22>
 8001ee0:	d108      	bne.n	8001ef4 <lib_systime_compare+0x1c>
 8001ee2:	684a      	ldr	r2, [r1, #4]
 8001ee4:	6843      	ldr	r3, [r0, #4]
 8001ee6:	429a      	cmp	r2, r3
 8001ee8:	d807      	bhi.n	8001efa <lib_systime_compare+0x22>
 8001eea:	bf14      	ite	ne
 8001eec:	f04f 30ff 	movne.w	r0, #4294967295
 8001ef0:	2000      	moveq	r0, #0
 8001ef2:	4770      	bx	lr
 8001ef4:	f04f 30ff 	mov.w	r0, #4294967295
 8001ef8:	4770      	bx	lr
 8001efa:	2001      	movs	r0, #1
 8001efc:	4770      	bx	lr

08001efe <lib_systime_sub>:
 8001efe:	b570      	push	{r4, r5, r6, lr}
 8001f00:	4605      	mov	r5, r0
 8001f02:	460e      	mov	r6, r1
 8001f04:	4614      	mov	r4, r2
 8001f06:	f7ff ffe7 	bl	8001ed8 <lib_systime_compare>
 8001f0a:	2800      	cmp	r0, #0
 8001f0c:	dd14      	ble.n	8001f38 <lib_systime_sub+0x3a>
 8001f0e:	6833      	ldr	r3, [r6, #0]
 8001f10:	682a      	ldr	r2, [r5, #0]
 8001f12:	6869      	ldr	r1, [r5, #4]
 8001f14:	1a9a      	subs	r2, r3, r2
 8001f16:	6873      	ldr	r3, [r6, #4]
 8001f18:	6022      	str	r2, [r4, #0]
 8001f1a:	428b      	cmp	r3, r1
 8001f1c:	bf3b      	ittet	cc
 8001f1e:	f503 2374 	addcc.w	r3, r3, #999424	; 0xf4000
 8001f22:	f503 7310 	addcc.w	r3, r3, #576	; 0x240
 8001f26:	1a5b      	subcs	r3, r3, r1
 8001f28:	1a5b      	subcc	r3, r3, r1
 8001f2a:	bf37      	itett	cc
 8001f2c:	f102 32ff 	addcc.w	r2, r2, #4294967295
 8001f30:	6063      	strcs	r3, [r4, #4]
 8001f32:	6063      	strcc	r3, [r4, #4]
 8001f34:	6022      	strcc	r2, [r4, #0]
 8001f36:	bd70      	pop	{r4, r5, r6, pc}
 8001f38:	2300      	movs	r3, #0
 8001f3a:	6063      	str	r3, [r4, #4]
 8001f3c:	6023      	str	r3, [r4, #0]
 8001f3e:	bd70      	pop	{r4, r5, r6, pc}

08001f40 <lib_systime_elapsed_us>:
 8001f40:	b513      	push	{r0, r1, r4, lr}
 8001f42:	4604      	mov	r4, r0
 8001f44:	4668      	mov	r0, sp
 8001f46:	f002 febe 	bl	8004cc6 <get_uptime>
 8001f4a:	4620      	mov	r0, r4
 8001f4c:	4669      	mov	r1, sp
 8001f4e:	466a      	mov	r2, sp
 8001f50:	f7ff ffd5 	bl	8001efe <lib_systime_sub>
 8001f54:	4668      	mov	r0, sp
 8001f56:	f7ff ff9d 	bl	8001e94 <lib_systime_to_us>
 8001f5a:	b002      	add	sp, #8
 8001f5c:	bd10      	pop	{r4, pc}

08001f5e <lib_systime_elapsed_ms>:
 8001f5e:	b513      	push	{r0, r1, r4, lr}
 8001f60:	4604      	mov	r4, r0
 8001f62:	4668      	mov	r0, sp
 8001f64:	f002 feaf 	bl	8004cc6 <get_uptime>
 8001f68:	4620      	mov	r0, r4
 8001f6a:	4669      	mov	r1, sp
 8001f6c:	466a      	mov	r2, sp
 8001f6e:	f7ff ffc6 	bl	8001efe <lib_systime_sub>
 8001f72:	4668      	mov	r0, sp
 8001f74:	f7ff ff9e 	bl	8001eb4 <lib_systime_to_ms>
 8001f78:	b002      	add	sp, #8
 8001f7a:	bd10      	pop	{r4, pc}

08001f7c <lib_systime_elapsed>:
 8001f7c:	b537      	push	{r0, r1, r2, r4, r5, lr}
 8001f7e:	460c      	mov	r4, r1
 8001f80:	4605      	mov	r5, r0
 8001f82:	4668      	mov	r0, sp
 8001f84:	f002 fe9f 	bl	8004cc6 <get_uptime>
 8001f88:	4628      	mov	r0, r5
 8001f8a:	4669      	mov	r1, sp
 8001f8c:	4622      	mov	r2, r4
 8001f8e:	f7ff ffb6 	bl	8001efe <lib_systime_sub>
 8001f92:	4620      	mov	r0, r4
 8001f94:	b003      	add	sp, #12
 8001f96:	bd30      	pop	{r4, r5, pc}

08001f98 <pool_init>:
 8001f98:	3103      	adds	r1, #3
 8001f9a:	f021 0103 	bic.w	r1, r1, #3
 8001f9e:	f101 0308 	add.w	r3, r1, #8
 8001fa2:	6043      	str	r3, [r0, #4]
 8001fa4:	6083      	str	r3, [r0, #8]
 8001fa6:	2300      	movs	r3, #0
 8001fa8:	600b      	str	r3, [r1, #0]
 8001faa:	6842      	ldr	r2, [r0, #4]
 8001fac:	f04f 31cd 	mov.w	r1, #3452816845	; 0xcdcdcdcd
 8001fb0:	f842 1c04 	str.w	r1, [r2, #-4]
 8001fb4:	f852 1c08 	ldr.w	r1, [r2, #-8]
 8001fb8:	b121      	cbz	r1, 8001fc4 <pool_init+0x2c>
 8001fba:	f04f 32dc 	mov.w	r2, #3705461980	; 0xdcdcdcdc
 8001fbe:	f841 2c0c 	str.w	r2, [r1, #-12]
 8001fc2:	e002      	b.n	8001fca <pool_init+0x32>
 8001fc4:	f04f 31ee 	mov.w	r1, #4008636142	; 0xeeeeeeee
 8001fc8:	6011      	str	r1, [r2, #0]
 8001fca:	6003      	str	r3, [r0, #0]
 8001fcc:	4770      	bx	lr

08001fce <pool_slot_size>:
 8001fce:	b131      	cbz	r1, 8001fde <pool_slot_size+0x10>
 8001fd0:	f851 3c08 	ldr.w	r3, [r1, #-8]
 8001fd4:	f06f 000b 	mvn.w	r0, #11
 8001fd8:	1a40      	subs	r0, r0, r1
 8001fda:	4418      	add	r0, r3
 8001fdc:	4770      	bx	lr
 8001fde:	4608      	mov	r0, r1
 8001fe0:	4770      	bx	lr

08001fe2 <pool_free>:
 8001fe2:	b530      	push	{r4, r5, lr}
 8001fe4:	2900      	cmp	r1, #0
 8001fe6:	d06d      	beq.n	80020c4 <pool_free+0xe2>
 8001fe8:	6803      	ldr	r3, [r0, #0]
 8001fea:	2200      	movs	r2, #0
 8001fec:	b123      	cbz	r3, 8001ff8 <pool_free+0x16>
 8001fee:	4299      	cmp	r1, r3
 8001ff0:	d902      	bls.n	8001ff8 <pool_free+0x16>
 8001ff2:	461a      	mov	r2, r3
 8001ff4:	681b      	ldr	r3, [r3, #0]
 8001ff6:	e7f9      	b.n	8001fec <pool_free+0xa>
 8001ff8:	428b      	cmp	r3, r1
 8001ffa:	d00b      	beq.n	8002014 <pool_free+0x32>
 8001ffc:	f851 4c08 	ldr.w	r4, [r1, #-8]
 8002000:	428c      	cmp	r4, r1
 8002002:	d907      	bls.n	8002014 <pool_free+0x32>
 8002004:	b10b      	cbz	r3, 800200a <pool_free+0x28>
 8002006:	429c      	cmp	r4, r3
 8002008:	d804      	bhi.n	8002014 <pool_free+0x32>
 800200a:	b14a      	cbz	r2, 8002020 <pool_free+0x3e>
 800200c:	f852 4c08 	ldr.w	r4, [r2, #-8]
 8002010:	428c      	cmp	r4, r1
 8002012:	d905      	bls.n	8002020 <pool_free+0x3e>
 8002014:	e8bd 4030 	ldmia.w	sp!, {r4, r5, lr}
 8002018:	f06f 00cb 	mvn.w	r0, #203	; 0xcb
 800201c:	f002 bdc3 	b.w	8004ba6 <error>
 8002020:	600b      	str	r3, [r1, #0]
 8002022:	b132      	cbz	r2, 8002032 <pool_free+0x50>
 8002024:	6011      	str	r1, [r2, #0]
 8002026:	b34b      	cbz	r3, 800207c <pool_free+0x9a>
 8002028:	f851 5c08 	ldr.w	r5, [r1, #-8]
 800202c:	429d      	cmp	r5, r3
 800202e:	d124      	bne.n	800207a <pool_free+0x98>
 8002030:	e003      	b.n	800203a <pool_free+0x58>
 8002032:	6001      	str	r1, [r0, #0]
 8002034:	2b00      	cmp	r3, #0
 8002036:	d1f7      	bne.n	8002028 <pool_free+0x46>
 8002038:	bd30      	pop	{r4, r5, pc}
 800203a:	f853 0c08 	ldr.w	r0, [r3, #-8]
 800203e:	2400      	movs	r4, #0
 8002040:	f841 4c04 	str.w	r4, [r1, #-4]
 8002044:	f843 4c0c 	str.w	r4, [r3, #-12]
 8002048:	f843 4c04 	str.w	r4, [r3, #-4]
 800204c:	b110      	cbz	r0, 8002054 <pool_free+0x72>
 800204e:	f840 4c0c 	str.w	r4, [r0, #-12]
 8002052:	e000      	b.n	8002056 <pool_free+0x74>
 8002054:	6018      	str	r0, [r3, #0]
 8002056:	f841 0c08 	str.w	r0, [r1, #-8]
 800205a:	682b      	ldr	r3, [r5, #0]
 800205c:	f04f 34cd 	mov.w	r4, #3452816845	; 0xcdcdcdcd
 8002060:	600b      	str	r3, [r1, #0]
 8002062:	682b      	ldr	r3, [r5, #0]
 8002064:	f841 4c04 	str.w	r4, [r1, #-4]
 8002068:	b120      	cbz	r0, 8002074 <pool_free+0x92>
 800206a:	f04f 34dc 	mov.w	r4, #3705461980	; 0xdcdcdcdc
 800206e:	f840 4c0c 	str.w	r4, [r0, #-12]
 8002072:	e002      	b.n	800207a <pool_free+0x98>
 8002074:	f04f 30ee 	mov.w	r0, #4008636142	; 0xeeeeeeee
 8002078:	6008      	str	r0, [r1, #0]
 800207a:	b31a      	cbz	r2, 80020c4 <pool_free+0xe2>
 800207c:	f852 0c08 	ldr.w	r0, [r2, #-8]
 8002080:	f1a2 0508 	sub.w	r5, r2, #8
 8002084:	4288      	cmp	r0, r1
 8002086:	d11d      	bne.n	80020c4 <pool_free+0xe2>
 8002088:	f851 0c08 	ldr.w	r0, [r1, #-8]
 800208c:	2400      	movs	r4, #0
 800208e:	f842 4c04 	str.w	r4, [r2, #-4]
 8002092:	f841 4c0c 	str.w	r4, [r1, #-12]
 8002096:	f841 4c04 	str.w	r4, [r1, #-4]
 800209a:	b110      	cbz	r0, 80020a2 <pool_free+0xc0>
 800209c:	f840 4c0c 	str.w	r4, [r0, #-12]
 80020a0:	e000      	b.n	80020a4 <pool_free+0xc2>
 80020a2:	6008      	str	r0, [r1, #0]
 80020a4:	6028      	str	r0, [r5, #0]
 80020a6:	6013      	str	r3, [r2, #0]
 80020a8:	f04f 33cd 	mov.w	r3, #3452816845	; 0xcdcdcdcd
 80020ac:	f842 3c04 	str.w	r3, [r2, #-4]
 80020b0:	682b      	ldr	r3, [r5, #0]
 80020b2:	b123      	cbz	r3, 80020be <pool_free+0xdc>
 80020b4:	f04f 32dc 	mov.w	r2, #3705461980	; 0xdcdcdcdc
 80020b8:	f843 2c0c 	str.w	r2, [r3, #-12]
 80020bc:	bd30      	pop	{r4, r5, pc}
 80020be:	f04f 33ee 	mov.w	r3, #4008636142	; 0xeeeeeeee
 80020c2:	6013      	str	r3, [r2, #0]
 80020c4:	bd30      	pop	{r4, r5, pc}

080020c6 <grow>:
 80020c6:	6883      	ldr	r3, [r0, #8]
 80020c8:	b570      	push	{r4, r5, r6, lr}
 80020ca:	f853 6c08 	ldr.w	r6, [r3, #-8]
 80020ce:	4605      	mov	r5, r0
 80020d0:	b116      	cbz	r6, 80020d8 <grow+0x12>
 80020d2:	f06f 00cb 	mvn.w	r0, #203	; 0xcb
 80020d6:	e008      	b.n	80020ea <grow+0x24>
 80020d8:	18c8      	adds	r0, r1, r3
 80020da:	f100 040c 	add.w	r4, r0, #12
 80020de:	429c      	cmp	r4, r3
 80020e0:	d301      	bcc.n	80020e6 <grow+0x20>
 80020e2:	42a2      	cmp	r2, r4
 80020e4:	d805      	bhi.n	80020f2 <grow+0x2c>
 80020e6:	f06f 00c8 	mvn.w	r0, #200	; 0xc8
 80020ea:	f002 fd5c 	bl	8004ba6 <error>
 80020ee:	2000      	movs	r0, #0
 80020f0:	bd70      	pop	{r4, r5, r6, pc}
 80020f2:	f843 4c08 	str.w	r4, [r3, #-8]
 80020f6:	f843 6c04 	str.w	r6, [r3, #-4]
 80020fa:	601e      	str	r6, [r3, #0]
 80020fc:	6046      	str	r6, [r0, #4]
 80020fe:	68a9      	ldr	r1, [r5, #8]
 8002100:	f04f 33cd 	mov.w	r3, #3452816845	; 0xcdcdcdcd
 8002104:	f851 2c08 	ldr.w	r2, [r1, #-8]
 8002108:	f841 3c04 	str.w	r3, [r1, #-4]
 800210c:	b122      	cbz	r2, 8002118 <grow+0x52>
 800210e:	f04f 36dc 	mov.w	r6, #3705461980	; 0xdcdcdcdc
 8002112:	f842 6c0c 	str.w	r6, [r2, #-12]
 8002116:	e002      	b.n	800211e <grow+0x58>
 8002118:	f04f 32ee 	mov.w	r2, #4008636142	; 0xeeeeeeee
 800211c:	600a      	str	r2, [r1, #0]
 800211e:	f844 3c04 	str.w	r3, [r4, #-4]
 8002122:	f04f 33ee 	mov.w	r3, #4008636142	; 0xeeeeeeee
 8002126:	60c3      	str	r3, [r0, #12]
 8002128:	4628      	mov	r0, r5
 800212a:	f7ff ff5a 	bl	8001fe2 <pool_free>
 800212e:	60ac      	str	r4, [r5, #8]
 8002130:	2001      	movs	r0, #1
 8002132:	bd70      	pop	{r4, r5, r6, pc}

08002134 <pool_malloc>:
 8002134:	e92d 41f0 	stmdb	sp!, {r4, r5, r6, r7, r8, lr}
 8002138:	1ccc      	adds	r4, r1, #3
 800213a:	4605      	mov	r5, r0
 800213c:	4690      	mov	r8, r2
 800213e:	f024 0403 	bic.w	r4, r4, #3
 8002142:	b131      	cbz	r1, 8002152 <pool_malloc+0x1e>
 8002144:	6883      	ldr	r3, [r0, #8]
 8002146:	42dc      	cmn	r4, r3
 8002148:	d306      	bcc.n	8002158 <pool_malloc+0x24>
 800214a:	f06f 00c8 	mvn.w	r0, #200	; 0xc8
 800214e:	f002 fd2a 	bl	8004ba6 <error>
 8002152:	2000      	movs	r0, #0
 8002154:	e8bd 81f0 	ldmia.w	sp!, {r4, r5, r6, r7, r8, pc}
 8002158:	2602      	movs	r6, #2
 800215a:	6828      	ldr	r0, [r5, #0]
 800215c:	2100      	movs	r1, #0
 800215e:	2800      	cmp	r0, #0
 8002160:	d040      	beq.n	80021e4 <pool_malloc+0xb0>
 8002162:	f850 2c08 	ldr.w	r2, [r0, #-8]
 8002166:	f104 030c 	add.w	r3, r4, #12
 800216a:	4403      	add	r3, r0
 800216c:	4293      	cmp	r3, r2
 800216e:	f1a0 0708 	sub.w	r7, r0, #8
 8002172:	d834      	bhi.n	80021de <pool_malloc+0xaa>
 8002174:	f103 0410 	add.w	r4, r3, #16
 8002178:	4294      	cmp	r4, r2
 800217a:	d828      	bhi.n	80021ce <pool_malloc+0x9a>
 800217c:	2400      	movs	r4, #0
 800217e:	f840 4c04 	str.w	r4, [r0, #-4]
 8002182:	b112      	cbz	r2, 800218a <pool_malloc+0x56>
 8002184:	f842 4c0c 	str.w	r4, [r2, #-12]
 8002188:	e000      	b.n	800218c <pool_malloc+0x58>
 800218a:	6002      	str	r2, [r0, #0]
 800218c:	f843 2c08 	str.w	r2, [r3, #-8]
 8002190:	603b      	str	r3, [r7, #0]
 8002192:	6802      	ldr	r2, [r0, #0]
 8002194:	601a      	str	r2, [r3, #0]
 8002196:	6003      	str	r3, [r0, #0]
 8002198:	683c      	ldr	r4, [r7, #0]
 800219a:	f04f 32cd 	mov.w	r2, #3452816845	; 0xcdcdcdcd
 800219e:	f840 2c04 	str.w	r2, [r0, #-4]
 80021a2:	b124      	cbz	r4, 80021ae <pool_malloc+0x7a>
 80021a4:	f04f 36dc 	mov.w	r6, #3705461980	; 0xdcdcdcdc
 80021a8:	f844 6c0c 	str.w	r6, [r4, #-12]
 80021ac:	e002      	b.n	80021b4 <pool_malloc+0x80>
 80021ae:	f04f 34ee 	mov.w	r4, #4008636142	; 0xeeeeeeee
 80021b2:	6004      	str	r4, [r0, #0]
 80021b4:	f843 2c04 	str.w	r2, [r3, #-4]
 80021b8:	f853 2c08 	ldr.w	r2, [r3, #-8]
 80021bc:	b122      	cbz	r2, 80021c8 <pool_malloc+0x94>
 80021be:	f04f 33dc 	mov.w	r3, #3705461980	; 0xdcdcdcdc
 80021c2:	f842 3c0c 	str.w	r3, [r2, #-12]
 80021c6:	e002      	b.n	80021ce <pool_malloc+0x9a>
 80021c8:	f04f 32ee 	mov.w	r2, #4008636142	; 0xeeeeeeee
 80021cc:	601a      	str	r2, [r3, #0]
 80021ce:	6803      	ldr	r3, [r0, #0]
 80021d0:	b111      	cbz	r1, 80021d8 <pool_malloc+0xa4>
 80021d2:	600b      	str	r3, [r1, #0]
 80021d4:	e8bd 81f0 	ldmia.w	sp!, {r4, r5, r6, r7, r8, pc}
 80021d8:	602b      	str	r3, [r5, #0]
 80021da:	e8bd 81f0 	ldmia.w	sp!, {r4, r5, r6, r7, r8, pc}
 80021de:	4601      	mov	r1, r0
 80021e0:	6800      	ldr	r0, [r0, #0]
 80021e2:	e7bc      	b.n	800215e <pool_malloc+0x2a>
 80021e4:	4628      	mov	r0, r5
 80021e6:	4621      	mov	r1, r4
 80021e8:	4642      	mov	r2, r8
 80021ea:	f7ff ff6c 	bl	80020c6 <grow>
 80021ee:	2800      	cmp	r0, #0
 80021f0:	d0af      	beq.n	8002152 <pool_malloc+0x1e>
 80021f2:	2e01      	cmp	r6, #1
 80021f4:	d0ad      	beq.n	8002152 <pool_malloc+0x1e>
 80021f6:	2601      	movs	r6, #1
 80021f8:	e7af      	b.n	800215a <pool_malloc+0x26>

080021fa <pool_realloc>:
 80021fa:	e92d 4ff7 	stmdb	sp!, {r0, r1, r2, r4, r5, r6, r7, r8, r9, sl, fp, lr}
 80021fe:	1cd4      	adds	r4, r2, #3
 8002200:	4607      	mov	r7, r0
 8002202:	4691      	mov	r9, r2
 8002204:	469a      	mov	sl, r3
 8002206:	f024 0403 	bic.w	r4, r4, #3
 800220a:	460d      	mov	r5, r1
 800220c:	b931      	cbnz	r1, 800221c <pool_realloc+0x22>
 800220e:	4621      	mov	r1, r4
 8002210:	461a      	mov	r2, r3
 8002212:	b003      	add	sp, #12
 8002214:	e8bd 4ff0 	ldmia.w	sp!, {r4, r5, r6, r7, r8, r9, sl, fp, lr}
 8002218:	f7ff bf8c 	b.w	8002134 <pool_malloc>
 800221c:	f1a1 0b08 	sub.w	fp, r1, #8
 8002220:	f851 6c08 	ldr.w	r6, [r1, #-8]
 8002224:	2c00      	cmp	r4, #0
 8002226:	f000 808a 	beq.w	800233e <pool_realloc+0x144>
 800222a:	f7ff fed0 	bl	8001fce <pool_slot_size>
 800222e:	4680      	mov	r8, r0
 8002230:	2302      	movs	r3, #2
 8002232:	683a      	ldr	r2, [r7, #0]
 8002234:	2100      	movs	r1, #0
 8002236:	b382      	cbz	r2, 800229a <pool_realloc+0xa0>
 8002238:	42b2      	cmp	r2, r6
 800223a:	d82e      	bhi.n	800229a <pool_realloc+0xa0>
 800223c:	d12a      	bne.n	8002294 <pool_realloc+0x9a>
 800223e:	f8db 0000 	ldr.w	r0, [fp]
 8002242:	2200      	movs	r2, #0
 8002244:	f845 2c04 	str.w	r2, [r5, #-4]
 8002248:	b110      	cbz	r0, 8002250 <pool_realloc+0x56>
 800224a:	f840 2c0c 	str.w	r2, [r0, #-12]
 800224e:	e000      	b.n	8002252 <pool_realloc+0x58>
 8002250:	602a      	str	r2, [r5, #0]
 8002252:	f846 2c04 	str.w	r2, [r6, #-4]
 8002256:	f856 2c08 	ldr.w	r2, [r6, #-8]
 800225a:	b11a      	cbz	r2, 8002264 <pool_realloc+0x6a>
 800225c:	2000      	movs	r0, #0
 800225e:	f842 0c0c 	str.w	r0, [r2, #-12]
 8002262:	e000      	b.n	8002266 <pool_realloc+0x6c>
 8002264:	6032      	str	r2, [r6, #0]
 8002266:	f8cb 2000 	str.w	r2, [fp]
 800226a:	6832      	ldr	r2, [r6, #0]
 800226c:	b109      	cbz	r1, 8002272 <pool_realloc+0x78>
 800226e:	600a      	str	r2, [r1, #0]
 8002270:	e000      	b.n	8002274 <pool_realloc+0x7a>
 8002272:	603a      	str	r2, [r7, #0]
 8002274:	f8db 6000 	ldr.w	r6, [fp]
 8002278:	f04f 32cd 	mov.w	r2, #3452816845	; 0xcdcdcdcd
 800227c:	f845 2c04 	str.w	r2, [r5, #-4]
 8002280:	b126      	cbz	r6, 800228c <pool_realloc+0x92>
 8002282:	f04f 32dc 	mov.w	r2, #3705461980	; 0xdcdcdcdc
 8002286:	f846 2c0c 	str.w	r2, [r6, #-12]
 800228a:	e006      	b.n	800229a <pool_realloc+0xa0>
 800228c:	f04f 32ee 	mov.w	r2, #4008636142	; 0xeeeeeeee
 8002290:	602a      	str	r2, [r5, #0]
 8002292:	e002      	b.n	800229a <pool_realloc+0xa0>
 8002294:	4611      	mov	r1, r2
 8002296:	6812      	ldr	r2, [r2, #0]
 8002298:	e7cd      	b.n	8002236 <pool_realloc+0x3c>
 800229a:	4544      	cmp	r4, r8
 800229c:	d805      	bhi.n	80022aa <pool_realloc+0xb0>
 800229e:	192b      	adds	r3, r5, r4
 80022a0:	f103 010c 	add.w	r1, r3, #12
 80022a4:	42b1      	cmp	r1, r6
 80022a6:	d911      	bls.n	80022cc <pool_realloc+0xd2>
 80022a8:	e03c      	b.n	8002324 <pool_realloc+0x12a>
 80022aa:	68ba      	ldr	r2, [r7, #8]
 80022ac:	9301      	str	r3, [sp, #4]
 80022ae:	4296      	cmp	r6, r2
 80022b0:	d1f5      	bne.n	800229e <pool_realloc+0xa4>
 80022b2:	4638      	mov	r0, r7
 80022b4:	ebc8 0104 	rsb	r1, r8, r4
 80022b8:	4652      	mov	r2, sl
 80022ba:	f7ff ff04 	bl	80020c6 <grow>
 80022be:	2800      	cmp	r0, #0
 80022c0:	d0ed      	beq.n	800229e <pool_realloc+0xa4>
 80022c2:	9b01      	ldr	r3, [sp, #4]
 80022c4:	2b01      	cmp	r3, #1
 80022c6:	d0ea      	beq.n	800229e <pool_realloc+0xa4>
 80022c8:	2301      	movs	r3, #1
 80022ca:	e7b2      	b.n	8002232 <pool_realloc+0x38>
 80022cc:	1a72      	subs	r2, r6, r1
 80022ce:	2a0f      	cmp	r2, #15
 80022d0:	d938      	bls.n	8002344 <pool_realloc+0x14a>
 80022d2:	f855 2c08 	ldr.w	r2, [r5, #-8]
 80022d6:	2000      	movs	r0, #0
 80022d8:	f845 0c04 	str.w	r0, [r5, #-4]
 80022dc:	b112      	cbz	r2, 80022e4 <pool_realloc+0xea>
 80022de:	f842 0c0c 	str.w	r0, [r2, #-12]
 80022e2:	e000      	b.n	80022e6 <pool_realloc+0xec>
 80022e4:	602a      	str	r2, [r5, #0]
 80022e6:	f04f 32cd 	mov.w	r2, #3452816845	; 0xcdcdcdcd
 80022ea:	605e      	str	r6, [r3, #4]
 80022ec:	f845 1c08 	str.w	r1, [r5, #-8]
 80022f0:	f845 2c04 	str.w	r2, [r5, #-4]
 80022f4:	b119      	cbz	r1, 80022fe <pool_realloc+0x104>
 80022f6:	f04f 30dc 	mov.w	r0, #3705461980	; 0xdcdcdcdc
 80022fa:	5128      	str	r0, [r5, r4]
 80022fc:	e002      	b.n	8002304 <pool_realloc+0x10a>
 80022fe:	f04f 30ee 	mov.w	r0, #4008636142	; 0xeeeeeeee
 8002302:	6028      	str	r0, [r5, #0]
 8002304:	f841 2c04 	str.w	r2, [r1, #-4]
 8002308:	685a      	ldr	r2, [r3, #4]
 800230a:	b122      	cbz	r2, 8002316 <pool_realloc+0x11c>
 800230c:	f04f 33dc 	mov.w	r3, #3705461980	; 0xdcdcdcdc
 8002310:	f842 3c0c 	str.w	r3, [r2, #-12]
 8002314:	e002      	b.n	800231c <pool_realloc+0x122>
 8002316:	f04f 32ee 	mov.w	r2, #4008636142	; 0xeeeeeeee
 800231a:	60da      	str	r2, [r3, #12]
 800231c:	4638      	mov	r0, r7
 800231e:	f7ff fe60 	bl	8001fe2 <pool_free>
 8002322:	e00f      	b.n	8002344 <pool_realloc+0x14a>
 8002324:	4638      	mov	r0, r7
 8002326:	4649      	mov	r1, r9
 8002328:	4652      	mov	r2, sl
 800232a:	f7ff ff03 	bl	8002134 <pool_malloc>
 800232e:	4604      	mov	r4, r0
 8002330:	b150      	cbz	r0, 8002348 <pool_realloc+0x14e>
 8002332:	4629      	mov	r1, r5
 8002334:	4642      	mov	r2, r8
 8002336:	f002 ffcf 	bl	80052d8 <memcpy>
 800233a:	4638      	mov	r0, r7
 800233c:	4629      	mov	r1, r5
 800233e:	f7ff fe50 	bl	8001fe2 <pool_free>
 8002342:	e001      	b.n	8002348 <pool_realloc+0x14e>
 8002344:	4628      	mov	r0, r5
 8002346:	e000      	b.n	800234a <pool_realloc+0x150>
 8002348:	4620      	mov	r0, r4
 800234a:	b003      	add	sp, #12
 800234c:	e8bd 8ff0 	ldmia.w	sp!, {r4, r5, r6, r7, r8, r9, sl, fp, pc}

08002350 <pool_free_ptr>:
 8002350:	6880      	ldr	r0, [r0, #8]
 8002352:	3008      	adds	r0, #8
 8002354:	4770      	bx	lr

08002356 <pool_check>:
 8002356:	6842      	ldr	r2, [r0, #4]
 8002358:	b538      	push	{r3, r4, r5, lr}
 800235a:	b14a      	cbz	r2, 8002370 <pool_check+0x1a>
 800235c:	6885      	ldr	r5, [r0, #8]
 800235e:	b13d      	cbz	r5, 8002370 <pool_check+0x1a>
 8002360:	42aa      	cmp	r2, r5
 8002362:	d805      	bhi.n	8002370 <pool_check+0x1a>
 8002364:	6803      	ldr	r3, [r0, #0]
 8002366:	42ab      	cmp	r3, r5
 8002368:	d802      	bhi.n	8002370 <pool_check+0x1a>
 800236a:	f855 4c08 	ldr.w	r4, [r5, #-8]
 800236e:	b114      	cbz	r4, 8002376 <pool_check+0x20>
 8002370:	f06f 00cb 	mvn.w	r0, #203	; 0xcb
 8002374:	e010      	b.n	8002398 <pool_check+0x42>
 8002376:	42a9      	cmp	r1, r5
 8002378:	d202      	bcs.n	8002380 <pool_check+0x2a>
 800237a:	f06f 00c8 	mvn.w	r0, #200	; 0xc8
 800237e:	e00b      	b.n	8002398 <pool_check+0x42>
 8002380:	4620      	mov	r0, r4
 8002382:	4290      	cmp	r0, r2
 8002384:	d8f4      	bhi.n	8002370 <pool_check+0x1a>
 8002386:	42aa      	cmp	r2, r5
 8002388:	d8f2      	bhi.n	8002370 <pool_check+0x1a>
 800238a:	f852 1c04 	ldr.w	r1, [r2, #-4]
 800238e:	f1b1 3fcd 	cmp.w	r1, #3452816845	; 0xcdcdcdcd
 8002392:	d005      	beq.n	80023a0 <pool_check+0x4a>
 8002394:	f06f 00cc 	mvn.w	r0, #204	; 0xcc
 8002398:	f002 fc05 	bl	8004ba6 <error>
 800239c:	2000      	movs	r0, #0
 800239e:	bd38      	pop	{r3, r4, r5, pc}
 80023a0:	f852 1c08 	ldr.w	r1, [r2, #-8]
 80023a4:	b139      	cbz	r1, 80023b6 <pool_check+0x60>
 80023a6:	4610      	mov	r0, r2
 80023a8:	f851 2c0c 	ldr.w	r2, [r1, #-12]
 80023ac:	f1b2 3fdc 	cmp.w	r2, #3705461980	; 0xdcdcdcdc
 80023b0:	d1f0      	bne.n	8002394 <pool_check+0x3e>
 80023b2:	460a      	mov	r2, r1
 80023b4:	e7e5      	b.n	8002382 <pool_check+0x2c>
 80023b6:	6812      	ldr	r2, [r2, #0]
 80023b8:	f1b2 3fee 	cmp.w	r2, #4008636142	; 0xeeeeeeee
 80023bc:	d1ea      	bne.n	8002394 <pool_check+0x3e>
 80023be:	b1bb      	cbz	r3, 80023f0 <pool_check+0x9a>
 80023c0:	4299      	cmp	r1, r3
 80023c2:	d8d5      	bhi.n	8002370 <pool_check+0x1a>
 80023c4:	42ab      	cmp	r3, r5
 80023c6:	d8d3      	bhi.n	8002370 <pool_check+0x1a>
 80023c8:	f853 2c04 	ldr.w	r2, [r3, #-4]
 80023cc:	f1b2 3fcd 	cmp.w	r2, #3452816845	; 0xcdcdcdcd
 80023d0:	d1e0      	bne.n	8002394 <pool_check+0x3e>
 80023d2:	f853 2c08 	ldr.w	r2, [r3, #-8]
 80023d6:	b122      	cbz	r2, 80023e2 <pool_check+0x8c>
 80023d8:	f852 2c0c 	ldr.w	r2, [r2, #-12]
 80023dc:	f1b2 3fdc 	cmp.w	r2, #3705461980	; 0xdcdcdcdc
 80023e0:	e002      	b.n	80023e8 <pool_check+0x92>
 80023e2:	681a      	ldr	r2, [r3, #0]
 80023e4:	f1b2 3fee 	cmp.w	r2, #4008636142	; 0xeeeeeeee
 80023e8:	d1d4      	bne.n	8002394 <pool_check+0x3e>
 80023ea:	4619      	mov	r1, r3
 80023ec:	681b      	ldr	r3, [r3, #0]
 80023ee:	e7e6      	b.n	80023be <pool_check+0x68>
 80023f0:	2001      	movs	r0, #1
 80023f2:	bd38      	pop	{r3, r4, r5, pc}

080023f4 <pool_stat>:
 80023f4:	b570      	push	{r4, r5, r6, lr}
 80023f6:	4606      	mov	r6, r0
 80023f8:	4615      	mov	r5, r2
 80023fa:	4608      	mov	r0, r1
 80023fc:	2214      	movs	r2, #20
 80023fe:	460c      	mov	r4, r1
 8002400:	2100      	movs	r1, #0
 8002402:	f003 f843 	bl	800548c <memset>
 8002406:	4629      	mov	r1, r5
 8002408:	4630      	mov	r0, r6
 800240a:	f7ff ffa4 	bl	8002356 <pool_check>
 800240e:	68b1      	ldr	r1, [r6, #8]
 8002410:	b920      	cbnz	r0, 800241c <pool_stat+0x28>
 8002412:	f101 0314 	add.w	r3, r1, #20
 8002416:	429d      	cmp	r5, r3
 8002418:	d220      	bcs.n	800245c <pool_stat+0x68>
 800241a:	bd70      	pop	{r4, r5, r6, pc}
 800241c:	e896 0005 	ldmia.w	r6, {r0, r2}
 8002420:	428a      	cmp	r2, r1
 8002422:	d0f6      	beq.n	8002412 <pool_stat+0x1e>
 8002424:	f852 6c08 	ldr.w	r6, [r2, #-8]
 8002428:	f06f 030b 	mvn.w	r3, #11
 800242c:	1a9b      	subs	r3, r3, r2
 800242e:	4282      	cmp	r2, r0
 8002430:	4433      	add	r3, r6
 8002432:	d10b      	bne.n	800244c <pool_stat+0x58>
 8002434:	6820      	ldr	r0, [r4, #0]
 8002436:	3001      	adds	r0, #1
 8002438:	6020      	str	r0, [r4, #0]
 800243a:	6920      	ldr	r0, [r4, #16]
 800243c:	4283      	cmp	r3, r0
 800243e:	68a0      	ldr	r0, [r4, #8]
 8002440:	bf88      	it	hi
 8002442:	6123      	strhi	r3, [r4, #16]
 8002444:	4403      	add	r3, r0
 8002446:	60a3      	str	r3, [r4, #8]
 8002448:	6810      	ldr	r0, [r2, #0]
 800244a:	e005      	b.n	8002458 <pool_stat+0x64>
 800244c:	6862      	ldr	r2, [r4, #4]
 800244e:	3201      	adds	r2, #1
 8002450:	6062      	str	r2, [r4, #4]
 8002452:	68e2      	ldr	r2, [r4, #12]
 8002454:	4413      	add	r3, r2
 8002456:	60e3      	str	r3, [r4, #12]
 8002458:	4632      	mov	r2, r6
 800245a:	e7e1      	b.n	8002420 <pool_stat+0x2c>
 800245c:	f06f 030f 	mvn.w	r3, #15
 8002460:	1a5b      	subs	r3, r3, r1
 8002462:	441d      	add	r5, r3
 8002464:	6823      	ldr	r3, [r4, #0]
 8002466:	3301      	adds	r3, #1
 8002468:	6023      	str	r3, [r4, #0]
 800246a:	6923      	ldr	r3, [r4, #16]
 800246c:	429d      	cmp	r5, r3
 800246e:	68a3      	ldr	r3, [r4, #8]
 8002470:	bf88      	it	hi
 8002472:	6125      	strhi	r5, [r4, #16]
 8002474:	441d      	add	r5, r3
 8002476:	60a5      	str	r5, [r4, #8]
 8002478:	bd70      	pop	{r4, r5, r6, pc}
 800247a:	0000      	movs	r0, r0

0800247c <pad_spaces>:
 800247c:	b570      	push	{r4, r5, r6, lr}
 800247e:	4604      	mov	r4, r0
 8002480:	460d      	mov	r5, r1
 8002482:	4616      	mov	r6, r2
 8002484:	2c0a      	cmp	r4, #10
 8002486:	dd05      	ble.n	8002494 <pad_spaces+0x18>
 8002488:	4807      	ldr	r0, [pc, #28]	; (80024a8 <pad_spaces+0x2c>)
 800248a:	210a      	movs	r1, #10
 800248c:	4632      	mov	r2, r6
 800248e:	47a8      	blx	r5
 8002490:	3c0a      	subs	r4, #10
 8002492:	e7f7      	b.n	8002484 <pad_spaces+0x8>
 8002494:	2c00      	cmp	r4, #0
 8002496:	dd06      	ble.n	80024a6 <pad_spaces+0x2a>
 8002498:	4621      	mov	r1, r4
 800249a:	4632      	mov	r2, r6
 800249c:	462b      	mov	r3, r5
 800249e:	e8bd 4070 	ldmia.w	sp!, {r4, r5, r6, lr}
 80024a2:	4801      	ldr	r0, [pc, #4]	; (80024a8 <pad_spaces+0x2c>)
 80024a4:	4718      	bx	r3
 80024a6:	bd70      	pop	{r4, r5, r6, pc}
 80024a8:	08005bdb 	.word	0x08005bdb

080024ac <pad_zeroes>:
 80024ac:	b570      	push	{r4, r5, r6, lr}
 80024ae:	4604      	mov	r4, r0
 80024b0:	460d      	mov	r5, r1
 80024b2:	4616      	mov	r6, r2
 80024b4:	2c0a      	cmp	r4, #10
 80024b6:	dd05      	ble.n	80024c4 <pad_zeroes+0x18>
 80024b8:	4807      	ldr	r0, [pc, #28]	; (80024d8 <pad_zeroes+0x2c>)
 80024ba:	210a      	movs	r1, #10
 80024bc:	4632      	mov	r2, r6
 80024be:	47a8      	blx	r5
 80024c0:	3c0a      	subs	r4, #10
 80024c2:	e7f7      	b.n	80024b4 <pad_zeroes+0x8>
 80024c4:	2c00      	cmp	r4, #0
 80024c6:	dd06      	ble.n	80024d6 <pad_zeroes+0x2a>
 80024c8:	4621      	mov	r1, r4
 80024ca:	4632      	mov	r2, r6
 80024cc:	462b      	mov	r3, r5
 80024ce:	e8bd 4070 	ldmia.w	sp!, {r4, r5, r6, lr}
 80024d2:	4801      	ldr	r0, [pc, #4]	; (80024d8 <pad_zeroes+0x2c>)
 80024d4:	4718      	bx	r3
 80024d6:	bd70      	pop	{r4, r5, r6, pc}
 80024d8:	08005bc4 	.word	0x08005bc4

080024dc <sprintf_handler>:
 80024dc:	b538      	push	{r3, r4, r5, lr}
 80024de:	4603      	mov	r3, r0
 80024e0:	460c      	mov	r4, r1
 80024e2:	4615      	mov	r5, r2
 80024e4:	6810      	ldr	r0, [r2, #0]
 80024e6:	4619      	mov	r1, r3
 80024e8:	4622      	mov	r2, r4
 80024ea:	f002 fef5 	bl	80052d8 <memcpy>
 80024ee:	682b      	ldr	r3, [r5, #0]
 80024f0:	441c      	add	r4, r3
 80024f2:	602c      	str	r4, [r5, #0]
 80024f4:	bd38      	pop	{r3, r4, r5, pc}

080024f6 <__atou>:
 80024f6:	4602      	mov	r2, r0
 80024f8:	b530      	push	{r4, r5, lr}
 80024fa:	2300      	movs	r3, #0
 80024fc:	1a14      	subs	r4, r2, r0
 80024fe:	428c      	cmp	r4, r1
 8002500:	da0a      	bge.n	8002518 <__atou+0x22>
 8002502:	f812 4b01 	ldrb.w	r4, [r2], #1
 8002506:	f1a4 0530 	sub.w	r5, r4, #48	; 0x30
 800250a:	2d09      	cmp	r5, #9
 800250c:	d804      	bhi.n	8002518 <__atou+0x22>
 800250e:	250a      	movs	r5, #10
 8002510:	fb05 4303 	mla	r3, r5, r3, r4
 8002514:	3b30      	subs	r3, #48	; 0x30
 8002516:	e7f1      	b.n	80024fc <__atou+0x6>
 8002518:	4618      	mov	r0, r3
 800251a:	bd30      	pop	{r4, r5, pc}

0800251c <__utoa>:
 800251c:	b5f8      	push	{r3, r4, r5, r6, r7, lr}
 800251e:	b1c1      	cbz	r1, 8002552 <__utoa+0x36>
 8002520:	f100 060b 	add.w	r6, r0, #11
 8002524:	2400      	movs	r4, #0
 8002526:	fbb1 f5f2 	udiv	r5, r1, r2
 800252a:	fb02 1115 	mls	r1, r2, r5, r1
 800252e:	b2c9      	uxtb	r1, r1
 8002530:	2909      	cmp	r1, #9
 8002532:	d905      	bls.n	8002540 <__utoa+0x24>
 8002534:	2b00      	cmp	r3, #0
 8002536:	bf14      	ite	ne
 8002538:	2737      	movne	r7, #55	; 0x37
 800253a:	2757      	moveq	r7, #87	; 0x57
 800253c:	4439      	add	r1, r7
 800253e:	e000      	b.n	8002542 <__utoa+0x26>
 8002540:	3130      	adds	r1, #48	; 0x30
 8002542:	b2c9      	uxtb	r1, r1
 8002544:	f806 1d01 	strb.w	r1, [r6, #-1]!
 8002548:	3401      	adds	r4, #1
 800254a:	4629      	mov	r1, r5
 800254c:	2d00      	cmp	r5, #0
 800254e:	d1ea      	bne.n	8002526 <__utoa+0xa>
 8002550:	e002      	b.n	8002558 <__utoa+0x3c>
 8002552:	2330      	movs	r3, #48	; 0x30
 8002554:	7283      	strb	r3, [r0, #10]
 8002556:	2401      	movs	r4, #1
 8002558:	f1c4 010b 	rsb	r1, r4, #11
 800255c:	4401      	add	r1, r0
 800255e:	4622      	mov	r2, r4
 8002560:	f002 ff30 	bl	80053c4 <memmove>
 8002564:	4620      	mov	r0, r4
 8002566:	bdf8      	pop	{r3, r4, r5, r6, r7, pc}

08002568 <size_in_bytes>:
 8002568:	f242 720e 	movw	r2, #9998	; 0x270e
 800256c:	4290      	cmp	r0, r2
 800256e:	b538      	push	{r3, r4, r5, lr}
 8002570:	4603      	mov	r3, r0
 8002572:	460c      	mov	r4, r1
 8002574:	d905      	bls.n	8002582 <size_in_bytes+0x1a>
 8002576:	0a83      	lsrs	r3, r0, #10
 8002578:	4293      	cmp	r3, r2
 800257a:	d904      	bls.n	8002586 <size_in_bytes+0x1e>
 800257c:	0a9b      	lsrs	r3, r3, #10
 800257e:	2502      	movs	r5, #2
 8002580:	e002      	b.n	8002588 <size_in_bytes+0x20>
 8002582:	2500      	movs	r5, #0
 8002584:	e000      	b.n	8002588 <size_in_bytes+0x20>
 8002586:	2501      	movs	r5, #1
 8002588:	4619      	mov	r1, r3
 800258a:	4620      	mov	r0, r4
 800258c:	220a      	movs	r2, #10
 800258e:	2300      	movs	r3, #0
 8002590:	f7ff ffc4 	bl	800251c <__utoa>
 8002594:	b135      	cbz	r5, 80025a4 <size_in_bytes+0x3c>
 8002596:	4a05      	ldr	r2, [pc, #20]	; (80025ac <size_in_bytes+0x44>)
 8002598:	1c43      	adds	r3, r0, #1
 800259a:	5caa      	ldrb	r2, [r5, r2]
 800259c:	5422      	strb	r2, [r4, r0]
 800259e:	2242      	movs	r2, #66	; 0x42
 80025a0:	54e2      	strb	r2, [r4, r3]
 80025a2:	3002      	adds	r0, #2
 80025a4:	2300      	movs	r3, #0
 80025a6:	5423      	strb	r3, [r4, r0]
 80025a8:	bd38      	pop	{r3, r4, r5, pc}
 80025aa:	bf00      	nop
 80025ac:	08005bcd 	.word	0x08005bcd

080025b0 <__format>:
 80025b0:	e92d 4ff0 	stmdb	sp!, {r4, r5, r6, r7, r8, r9, sl, fp, lr}
 80025b4:	4699      	mov	r9, r3
 80025b6:	2300      	movs	r3, #0
 80025b8:	4682      	mov	sl, r0
 80025ba:	4690      	mov	r8, r2
 80025bc:	460c      	mov	r4, r1
 80025be:	461f      	mov	r7, r3
 80025c0:	461d      	mov	r5, r3
 80025c2:	b08b      	sub	sp, #44	; 0x2c
 80025c4:	9303      	str	r3, [sp, #12]
 80025c6:	f81a 3007 	ldrb.w	r3, [sl, r7]
 80025ca:	2b00      	cmp	r3, #0
 80025cc:	f000 81af 	beq.w	800292e <__format+0x37e>
 80025d0:	2b25      	cmp	r3, #37	; 0x25
 80025d2:	f107 0101 	add.w	r1, r7, #1
 80025d6:	f040 81a4 	bne.w	8002922 <__format+0x372>
 80025da:	f81a 3001 	ldrb.w	r3, [sl, r1]
 80025de:	460e      	mov	r6, r1
 80025e0:	2b25      	cmp	r3, #37	; 0x25
 80025e2:	d107      	bne.n	80025f4 <__format+0x44>
 80025e4:	eb0a 0005 	add.w	r0, sl, r5
 80025e8:	1b49      	subs	r1, r1, r5
 80025ea:	464a      	mov	r2, r9
 80025ec:	47c0      	blx	r8
 80025ee:	1cbd      	adds	r5, r7, #2
 80025f0:	9401      	str	r4, [sp, #4]
 80025f2:	e199      	b.n	8002928 <__format+0x378>
 80025f4:	42af      	cmp	r7, r5
 80025f6:	d904      	bls.n	8002602 <__format+0x52>
 80025f8:	eb0a 0005 	add.w	r0, sl, r5
 80025fc:	1b79      	subs	r1, r7, r5
 80025fe:	464a      	mov	r2, r9
 8002600:	47c0      	blx	r8
 8002602:	f04f 0b01 	mov.w	fp, #1
 8002606:	f81a 3006 	ldrb.w	r3, [sl, r6]
 800260a:	eb0a 0006 	add.w	r0, sl, r6
 800260e:	2b00      	cmp	r3, #0
 8002610:	f000 8195 	beq.w	800293e <__format+0x38e>
 8002614:	f01b 0f01 	tst.w	fp, #1
 8002618:	d01d      	beq.n	8002656 <__format+0xa6>
 800261a:	2b2b      	cmp	r3, #43	; 0x2b
 800261c:	d011      	beq.n	8002642 <__format+0x92>
 800261e:	d806      	bhi.n	800262e <__format+0x7e>
 8002620:	2b20      	cmp	r3, #32
 8002622:	d011      	beq.n	8002648 <__format+0x98>
 8002624:	2b23      	cmp	r3, #35	; 0x23
 8002626:	d113      	bne.n	8002650 <__format+0xa0>
 8002628:	f04b 0b10 	orr.w	fp, fp, #16
 800262c:	e00e      	b.n	800264c <__format+0x9c>
 800262e:	2b2d      	cmp	r3, #45	; 0x2d
 8002630:	d004      	beq.n	800263c <__format+0x8c>
 8002632:	2b30      	cmp	r3, #48	; 0x30
 8002634:	d10c      	bne.n	8002650 <__format+0xa0>
 8002636:	f04b 0b20 	orr.w	fp, fp, #32
 800263a:	e007      	b.n	800264c <__format+0x9c>
 800263c:	f04b 0b02 	orr.w	fp, fp, #2
 8002640:	e004      	b.n	800264c <__format+0x9c>
 8002642:	f04b 0b04 	orr.w	fp, fp, #4
 8002646:	e001      	b.n	800264c <__format+0x9c>
 8002648:	f04b 0b08 	orr.w	fp, fp, #8
 800264c:	3601      	adds	r6, #1
 800264e:	e7da      	b.n	8002606 <__format+0x56>
 8002650:	f00b 0bfe 	and.w	fp, fp, #254	; 0xfe
 8002654:	e7d7      	b.n	8002606 <__format+0x56>
 8002656:	2b2a      	cmp	r3, #42	; 0x2a
 8002658:	465f      	mov	r7, fp
 800265a:	d001      	beq.n	8002660 <__format+0xb0>
 800265c:	4602      	mov	r2, r0
 800265e:	e004      	b.n	800266a <__format+0xba>
 8002660:	6823      	ldr	r3, [r4, #0]
 8002662:	1c75      	adds	r5, r6, #1
 8002664:	9302      	str	r3, [sp, #8]
 8002666:	3404      	adds	r4, #4
 8002668:	e00f      	b.n	800268a <__format+0xda>
 800266a:	ebca 0502 	rsb	r5, sl, r2
 800266e:	f812 3b01 	ldrb.w	r3, [r2], #1
 8002672:	3b30      	subs	r3, #48	; 0x30
 8002674:	2b09      	cmp	r3, #9
 8002676:	d9f8      	bls.n	800266a <__format+0xba>
 8002678:	42b5      	cmp	r5, r6
 800267a:	d904      	bls.n	8002686 <__format+0xd6>
 800267c:	1ba9      	subs	r1, r5, r6
 800267e:	f7ff ff3a 	bl	80024f6 <__atou>
 8002682:	9002      	str	r0, [sp, #8]
 8002684:	e001      	b.n	800268a <__format+0xda>
 8002686:	2300      	movs	r3, #0
 8002688:	9302      	str	r3, [sp, #8]
 800268a:	f81a 3005 	ldrb.w	r3, [sl, r5]
 800268e:	2b2e      	cmp	r3, #46	; 0x2e
 8002690:	d11a      	bne.n	80026c8 <__format+0x118>
 8002692:	1c69      	adds	r1, r5, #1
 8002694:	f81a 3001 	ldrb.w	r3, [sl, r1]
 8002698:	eb0a 0001 	add.w	r0, sl, r1
 800269c:	2b2a      	cmp	r3, #42	; 0x2a
 800269e:	d001      	beq.n	80026a4 <__format+0xf4>
 80026a0:	460d      	mov	r5, r1
 80026a2:	e003      	b.n	80026ac <__format+0xfc>
 80026a4:	6826      	ldr	r6, [r4, #0]
 80026a6:	3502      	adds	r5, #2
 80026a8:	3404      	adds	r4, #4
 80026aa:	e00e      	b.n	80026ca <__format+0x11a>
 80026ac:	f81a 3005 	ldrb.w	r3, [sl, r5]
 80026b0:	3b30      	subs	r3, #48	; 0x30
 80026b2:	2b09      	cmp	r3, #9
 80026b4:	d801      	bhi.n	80026ba <__format+0x10a>
 80026b6:	3501      	adds	r5, #1
 80026b8:	e7f8      	b.n	80026ac <__format+0xfc>
 80026ba:	428d      	cmp	r5, r1
 80026bc:	d904      	bls.n	80026c8 <__format+0x118>
 80026be:	1a69      	subs	r1, r5, r1
 80026c0:	f7ff ff19 	bl	80024f6 <__atou>
 80026c4:	4606      	mov	r6, r0
 80026c6:	e000      	b.n	80026ca <__format+0x11a>
 80026c8:	2601      	movs	r6, #1
 80026ca:	f81a 2005 	ldrb.w	r2, [sl, r5]
 80026ce:	1c6b      	adds	r3, r5, #1
 80026d0:	2a68      	cmp	r2, #104	; 0x68
 80026d2:	d003      	beq.n	80026dc <__format+0x12c>
 80026d4:	2a6c      	cmp	r2, #108	; 0x6c
 80026d6:	bf08      	it	eq
 80026d8:	461d      	moveq	r5, r3
 80026da:	e002      	b.n	80026e2 <__format+0x132>
 80026dc:	461d      	mov	r5, r3
 80026de:	f04b 0740 	orr.w	r7, fp, #64	; 0x40
 80026e2:	eb0a 0305 	add.w	r3, sl, r5
 80026e6:	9304      	str	r3, [sp, #16]
 80026e8:	f81a 3005 	ldrb.w	r3, [sl, r5]
 80026ec:	2b69      	cmp	r3, #105	; 0x69
 80026ee:	d02d      	beq.n	800274c <__format+0x19c>
 80026f0:	d80a      	bhi.n	8002708 <__format+0x158>
 80026f2:	2b62      	cmp	r3, #98	; 0x62
 80026f4:	f000 809c 	beq.w	8002830 <__format+0x280>
 80026f8:	d801      	bhi.n	80026fe <__format+0x14e>
 80026fa:	2b58      	cmp	r3, #88	; 0x58
 80026fc:	e00d      	b.n	800271a <__format+0x16a>
 80026fe:	2b63      	cmp	r3, #99	; 0x63
 8002700:	d00d      	beq.n	800271e <__format+0x16e>
 8002702:	2b64      	cmp	r3, #100	; 0x64
 8002704:	d022      	beq.n	800274c <__format+0x19c>
 8002706:	e0a6      	b.n	8002856 <__format+0x2a6>
 8002708:	2b73      	cmp	r3, #115	; 0x73
 800270a:	d00f      	beq.n	800272c <__format+0x17c>
 800270c:	d802      	bhi.n	8002714 <__format+0x164>
 800270e:	2b6f      	cmp	r3, #111	; 0x6f
 8002710:	d072      	beq.n	80027f8 <__format+0x248>
 8002712:	e0a0      	b.n	8002856 <__format+0x2a6>
 8002714:	2b75      	cmp	r3, #117	; 0x75
 8002716:	d03f      	beq.n	8002798 <__format+0x1e8>
 8002718:	2b78      	cmp	r3, #120	; 0x78
 800271a:	d052      	beq.n	80027c2 <__format+0x212>
 800271c:	e09b      	b.n	8002856 <__format+0x2a6>
 800271e:	1d23      	adds	r3, r4, #4
 8002720:	9301      	str	r3, [sp, #4]
 8002722:	6823      	ldr	r3, [r4, #0]
 8002724:	2401      	movs	r4, #1
 8002726:	f88d 301b 	strb.w	r3, [sp, #27]
 800272a:	e098      	b.n	800285e <__format+0x2ae>
 800272c:	1d23      	adds	r3, r4, #4
 800272e:	9301      	str	r3, [sp, #4]
 8002730:	6823      	ldr	r3, [r4, #0]
 8002732:	4618      	mov	r0, r3
 8002734:	9303      	str	r3, [sp, #12]
 8002736:	f002 ff55 	bl	80055e4 <strlen>
 800273a:	2e01      	cmp	r6, #1
 800273c:	4604      	mov	r4, r0
 800273e:	f240 808e 	bls.w	800285e <__format+0x2ae>
 8002742:	4286      	cmp	r6, r0
 8002744:	f080 808b 	bcs.w	800285e <__format+0x2ae>
 8002748:	4634      	mov	r4, r6
 800274a:	e088      	b.n	800285e <__format+0x2ae>
 800274c:	06b9      	lsls	r1, r7, #26
 800274e:	d503      	bpl.n	8002758 <__format+0x1a8>
 8002750:	9b02      	ldr	r3, [sp, #8]
 8002752:	429e      	cmp	r6, r3
 8002754:	bf38      	it	cc
 8002756:	461e      	movcc	r6, r3
 8002758:	1d23      	adds	r3, r4, #4
 800275a:	6824      	ldr	r4, [r4, #0]
 800275c:	067a      	lsls	r2, r7, #25
 800275e:	bf48      	it	mi
 8002760:	b224      	sxthmi	r4, r4
 8002762:	2c00      	cmp	r4, #0
 8002764:	9301      	str	r3, [sp, #4]
 8002766:	da0b      	bge.n	8002780 <__format+0x1d0>
 8002768:	4261      	negs	r1, r4
 800276a:	a807      	add	r0, sp, #28
 800276c:	220a      	movs	r2, #10
 800276e:	2300      	movs	r3, #0
 8002770:	f7ff fed4 	bl	800251c <__utoa>
 8002774:	f067 077f 	orn	r7, r7, #127	; 0x7f
 8002778:	4683      	mov	fp, r0
 800277a:	1c44      	adds	r4, r0, #1
 800277c:	b2ff      	uxtb	r7, r7
 800277e:	e064      	b.n	800284a <__format+0x29a>
 8002780:	d062      	beq.n	8002848 <__format+0x298>
 8002782:	4621      	mov	r1, r4
 8002784:	a807      	add	r0, sp, #28
 8002786:	220a      	movs	r2, #10
 8002788:	2300      	movs	r3, #0
 800278a:	f7ff fec7 	bl	800251c <__utoa>
 800278e:	f017 0f0c 	tst.w	r7, #12
 8002792:	4604      	mov	r4, r0
 8002794:	4683      	mov	fp, r0
 8002796:	e046      	b.n	8002826 <__format+0x276>
 8002798:	06bb      	lsls	r3, r7, #26
 800279a:	d503      	bpl.n	80027a4 <__format+0x1f4>
 800279c:	9b02      	ldr	r3, [sp, #8]
 800279e:	429e      	cmp	r6, r3
 80027a0:	bf38      	it	cc
 80027a2:	461e      	movcc	r6, r3
 80027a4:	6821      	ldr	r1, [r4, #0]
 80027a6:	0678      	lsls	r0, r7, #25
 80027a8:	f104 0304 	add.w	r3, r4, #4
 80027ac:	bf48      	it	mi
 80027ae:	b289      	uxthmi	r1, r1
 80027b0:	9301      	str	r3, [sp, #4]
 80027b2:	2900      	cmp	r1, #0
 80027b4:	d03a      	beq.n	800282c <__format+0x27c>
 80027b6:	a807      	add	r0, sp, #28
 80027b8:	220a      	movs	r2, #10
 80027ba:	2300      	movs	r3, #0
 80027bc:	f7ff feae 	bl	800251c <__utoa>
 80027c0:	e041      	b.n	8002846 <__format+0x296>
 80027c2:	06b9      	lsls	r1, r7, #26
 80027c4:	d503      	bpl.n	80027ce <__format+0x21e>
 80027c6:	9a02      	ldr	r2, [sp, #8]
 80027c8:	4296      	cmp	r6, r2
 80027ca:	bf38      	it	cc
 80027cc:	4616      	movcc	r6, r2
 80027ce:	1d22      	adds	r2, r4, #4
 80027d0:	6821      	ldr	r1, [r4, #0]
 80027d2:	9201      	str	r2, [sp, #4]
 80027d4:	067a      	lsls	r2, r7, #25
 80027d6:	bf48      	it	mi
 80027d8:	b289      	uxthmi	r1, r1
 80027da:	b339      	cbz	r1, 800282c <__format+0x27c>
 80027dc:	f1a3 0458 	sub.w	r4, r3, #88	; 0x58
 80027e0:	4263      	negs	r3, r4
 80027e2:	4163      	adcs	r3, r4
 80027e4:	a807      	add	r0, sp, #28
 80027e6:	2210      	movs	r2, #16
 80027e8:	f7ff fe98 	bl	800251c <__utoa>
 80027ec:	06fb      	lsls	r3, r7, #27
 80027ee:	4604      	mov	r4, r0
 80027f0:	4683      	mov	fp, r0
 80027f2:	d52a      	bpl.n	800284a <__format+0x29a>
 80027f4:	3402      	adds	r4, #2
 80027f6:	e028      	b.n	800284a <__format+0x29a>
 80027f8:	06bb      	lsls	r3, r7, #26
 80027fa:	d503      	bpl.n	8002804 <__format+0x254>
 80027fc:	9b02      	ldr	r3, [sp, #8]
 80027fe:	429e      	cmp	r6, r3
 8002800:	bf38      	it	cc
 8002802:	461e      	movcc	r6, r3
 8002804:	6821      	ldr	r1, [r4, #0]
 8002806:	0678      	lsls	r0, r7, #25
 8002808:	f104 0304 	add.w	r3, r4, #4
 800280c:	bf48      	it	mi
 800280e:	b289      	uxthmi	r1, r1
 8002810:	9301      	str	r3, [sp, #4]
 8002812:	b159      	cbz	r1, 800282c <__format+0x27c>
 8002814:	a807      	add	r0, sp, #28
 8002816:	2208      	movs	r2, #8
 8002818:	2300      	movs	r3, #0
 800281a:	f7ff fe7f 	bl	800251c <__utoa>
 800281e:	4604      	mov	r4, r0
 8002820:	4683      	mov	fp, r0
 8002822:	f017 0f10 	tst.w	r7, #16
 8002826:	d010      	beq.n	800284a <__format+0x29a>
 8002828:	3401      	adds	r4, #1
 800282a:	e00e      	b.n	800284a <__format+0x29a>
 800282c:	460c      	mov	r4, r1
 800282e:	e00b      	b.n	8002848 <__format+0x298>
 8002830:	6820      	ldr	r0, [r4, #0]
 8002832:	067a      	lsls	r2, r7, #25
 8002834:	f104 0304 	add.w	r3, r4, #4
 8002838:	bf48      	it	mi
 800283a:	b280      	uxthmi	r0, r0
 800283c:	9301      	str	r3, [sp, #4]
 800283e:	b110      	cbz	r0, 8002846 <__format+0x296>
 8002840:	a907      	add	r1, sp, #28
 8002842:	f7ff fe91 	bl	8002568 <size_in_bytes>
 8002846:	4604      	mov	r4, r0
 8002848:	46a3      	mov	fp, r4
 800284a:	45b3      	cmp	fp, r6
 800284c:	d209      	bcs.n	8002862 <__format+0x2b2>
 800284e:	ebcb 0404 	rsb	r4, fp, r4
 8002852:	4434      	add	r4, r6
 8002854:	e005      	b.n	8002862 <__format+0x2b2>
 8002856:	9401      	str	r4, [sp, #4]
 8002858:	2400      	movs	r4, #0
 800285a:	46a3      	mov	fp, r4
 800285c:	e001      	b.n	8002862 <__format+0x2b2>
 800285e:	f04f 0b00 	mov.w	fp, #0
 8002862:	f007 0202 	and.w	r2, r7, #2
 8002866:	f002 03ff 	and.w	r3, r2, #255	; 0xff
 800286a:	9305      	str	r3, [sp, #20]
 800286c:	b92a      	cbnz	r2, 800287a <__format+0x2ca>
 800286e:	9b02      	ldr	r3, [sp, #8]
 8002870:	4641      	mov	r1, r8
 8002872:	1b18      	subs	r0, r3, r4
 8002874:	464a      	mov	r2, r9
 8002876:	f7ff fe01 	bl	800247c <pad_spaces>
 800287a:	9b04      	ldr	r3, [sp, #16]
 800287c:	3501      	adds	r5, #1
 800287e:	781a      	ldrb	r2, [r3, #0]
 8002880:	2a69      	cmp	r2, #105	; 0x69
 8002882:	d01c      	beq.n	80028be <__format+0x30e>
 8002884:	d809      	bhi.n	800289a <__format+0x2ea>
 8002886:	2a62      	cmp	r2, #98	; 0x62
 8002888:	d019      	beq.n	80028be <__format+0x30e>
 800288a:	d801      	bhi.n	8002890 <__format+0x2e0>
 800288c:	2a58      	cmp	r2, #88	; 0x58
 800288e:	e00d      	b.n	80028ac <__format+0x2fc>
 8002890:	2a63      	cmp	r2, #99	; 0x63
 8002892:	d00d      	beq.n	80028b0 <__format+0x300>
 8002894:	2a64      	cmp	r2, #100	; 0x64
 8002896:	d012      	beq.n	80028be <__format+0x30e>
 8002898:	e03a      	b.n	8002910 <__format+0x360>
 800289a:	2a73      	cmp	r2, #115	; 0x73
 800289c:	d00c      	beq.n	80028b8 <__format+0x308>
 800289e:	d802      	bhi.n	80028a6 <__format+0x2f6>
 80028a0:	2a6f      	cmp	r2, #111	; 0x6f
 80028a2:	d020      	beq.n	80028e6 <__format+0x336>
 80028a4:	e034      	b.n	8002910 <__format+0x360>
 80028a6:	2a75      	cmp	r2, #117	; 0x75
 80028a8:	d009      	beq.n	80028be <__format+0x30e>
 80028aa:	2a78      	cmp	r2, #120	; 0x78
 80028ac:	d016      	beq.n	80028dc <__format+0x32c>
 80028ae:	e02f      	b.n	8002910 <__format+0x360>
 80028b0:	f10d 001b 	add.w	r0, sp, #27
 80028b4:	2101      	movs	r1, #1
 80028b6:	e029      	b.n	800290c <__format+0x35c>
 80028b8:	9803      	ldr	r0, [sp, #12]
 80028ba:	4621      	mov	r1, r4
 80028bc:	e026      	b.n	800290c <__format+0x35c>
 80028be:	063b      	lsls	r3, r7, #24
 80028c0:	d501      	bpl.n	80028c6 <__format+0x316>
 80028c2:	4821      	ldr	r0, [pc, #132]	; (8002948 <__format+0x398>)
 80028c4:	e015      	b.n	80028f2 <__format+0x342>
 80028c6:	f1bb 0f00 	cmp.w	fp, #0
 80028ca:	d015      	beq.n	80028f8 <__format+0x348>
 80028cc:	0778      	lsls	r0, r7, #29
 80028ce:	d501      	bpl.n	80028d4 <__format+0x324>
 80028d0:	481e      	ldr	r0, [pc, #120]	; (800294c <__format+0x39c>)
 80028d2:	e00e      	b.n	80028f2 <__format+0x342>
 80028d4:	0739      	lsls	r1, r7, #28
 80028d6:	d50f      	bpl.n	80028f8 <__format+0x348>
 80028d8:	481d      	ldr	r0, [pc, #116]	; (8002950 <__format+0x3a0>)
 80028da:	e00a      	b.n	80028f2 <__format+0x342>
 80028dc:	06fa      	lsls	r2, r7, #27
 80028de:	d50b      	bpl.n	80028f8 <__format+0x348>
 80028e0:	481c      	ldr	r0, [pc, #112]	; (8002954 <__format+0x3a4>)
 80028e2:	2102      	movs	r1, #2
 80028e4:	e006      	b.n	80028f4 <__format+0x344>
 80028e6:	f1bb 0f00 	cmp.w	fp, #0
 80028ea:	d005      	beq.n	80028f8 <__format+0x348>
 80028ec:	06fb      	lsls	r3, r7, #27
 80028ee:	d503      	bpl.n	80028f8 <__format+0x348>
 80028f0:	4819      	ldr	r0, [pc, #100]	; (8002958 <__format+0x3a8>)
 80028f2:	2101      	movs	r1, #1
 80028f4:	464a      	mov	r2, r9
 80028f6:	47c0      	blx	r8
 80028f8:	45b3      	cmp	fp, r6
 80028fa:	d205      	bcs.n	8002908 <__format+0x358>
 80028fc:	ebcb 0006 	rsb	r0, fp, r6
 8002900:	4641      	mov	r1, r8
 8002902:	464a      	mov	r2, r9
 8002904:	f7ff fdd2 	bl	80024ac <pad_zeroes>
 8002908:	4659      	mov	r1, fp
 800290a:	a807      	add	r0, sp, #28
 800290c:	464a      	mov	r2, r9
 800290e:	47c0      	blx	r8
 8002910:	9b05      	ldr	r3, [sp, #20]
 8002912:	b14b      	cbz	r3, 8002928 <__format+0x378>
 8002914:	9b02      	ldr	r3, [sp, #8]
 8002916:	4641      	mov	r1, r8
 8002918:	1b18      	subs	r0, r3, r4
 800291a:	464a      	mov	r2, r9
 800291c:	f7ff fdae 	bl	800247c <pad_spaces>
 8002920:	e002      	b.n	8002928 <__format+0x378>
 8002922:	460f      	mov	r7, r1
 8002924:	9401      	str	r4, [sp, #4]
 8002926:	e000      	b.n	800292a <__format+0x37a>
 8002928:	462f      	mov	r7, r5
 800292a:	9c01      	ldr	r4, [sp, #4]
 800292c:	e64b      	b.n	80025c6 <__format+0x16>
 800292e:	42af      	cmp	r7, r5
 8002930:	d907      	bls.n	8002942 <__format+0x392>
 8002932:	eb0a 0005 	add.w	r0, sl, r5
 8002936:	1b79      	subs	r1, r7, r5
 8002938:	464a      	mov	r2, r9
 800293a:	47c0      	blx	r8
 800293c:	e001      	b.n	8002942 <__format+0x392>
 800293e:	465f      	mov	r7, fp
 8002940:	e68c      	b.n	800265c <__format+0xac>
 8002942:	b00b      	add	sp, #44	; 0x2c
 8002944:	e8bd 8ff0 	ldmia.w	sp!, {r4, r5, r6, r7, r8, r9, sl, fp, pc}
 8002948:	08005bd2 	.word	0x08005bd2
 800294c:	08005bd4 	.word	0x08005bd4
 8002950:	08005a29 	.word	0x08005a29
 8002954:	08005bd6 	.word	0x08005bd6
 8002958:	08005bd9 	.word	0x08005bd9

0800295c <sformat>:
 800295c:	b507      	push	{r0, r1, r2, lr}
 800295e:	ab02      	add	r3, sp, #8
 8002960:	f843 0d04 	str.w	r0, [r3, #-4]!
 8002964:	4608      	mov	r0, r1
 8002966:	4611      	mov	r1, r2
 8002968:	4a04      	ldr	r2, [pc, #16]	; (800297c <sformat+0x20>)
 800296a:	f7ff fe21 	bl	80025b0 <__format>
 800296e:	9b01      	ldr	r3, [sp, #4]
 8002970:	2200      	movs	r2, #0
 8002972:	701a      	strb	r2, [r3, #0]
 8002974:	b003      	add	sp, #12
 8002976:	f85d fb04 	ldr.w	pc, [sp], #4
 800297a:	bf00      	nop
 800297c:	080024dd 	.word	0x080024dd

08002980 <pformat>:
 8002980:	4a01      	ldr	r2, [pc, #4]	; (8002988 <pformat+0x8>)
 8002982:	2300      	movs	r3, #0
 8002984:	f7ff be14 	b.w	80025b0 <__format>
 8002988:	080029ed 	.word	0x080029ed

0800298c <__getc>:
 800298c:	b507      	push	{r0, r1, r2, lr}
 800298e:	f04f 5300 	mov.w	r3, #536870912	; 0x20000000
 8002992:	681b      	ldr	r3, [r3, #0]
 8002994:	f10d 0107 	add.w	r1, sp, #7
 8002998:	6958      	ldr	r0, [r3, #20]
 800299a:	2201      	movs	r2, #1
 800299c:	f002 fa9d 	bl	8004eda <stream_read>
 80029a0:	f89d 0007 	ldrb.w	r0, [sp, #7]
 80029a4:	b003      	add	sp, #12
 80029a6:	f85d fb04 	ldr.w	pc, [sp], #4

080029aa <__gets>:
 80029aa:	b570      	push	{r4, r5, r6, lr}
 80029ac:	4605      	mov	r5, r0
 80029ae:	460e      	mov	r6, r1
 80029b0:	4604      	mov	r4, r0
 80029b2:	f7ff ffeb 	bl	800298c <__getc>
 80029b6:	280a      	cmp	r0, #10
 80029b8:	7020      	strb	r0, [r4, #0]
 80029ba:	d005      	beq.n	80029c8 <__gets+0x1e>
 80029bc:	1b63      	subs	r3, r4, r5
 80029be:	1e72      	subs	r2, r6, #1
 80029c0:	4293      	cmp	r3, r2
 80029c2:	da01      	bge.n	80029c8 <__gets+0x1e>
 80029c4:	3401      	adds	r4, #1
 80029c6:	e7f4      	b.n	80029b2 <__gets+0x8>
 80029c8:	2300      	movs	r3, #0
 80029ca:	7023      	strb	r3, [r4, #0]
 80029cc:	4628      	mov	r0, r5
 80029ce:	bd70      	pop	{r4, r5, r6, pc}

080029d0 <__putc>:
 80029d0:	b507      	push	{r0, r1, r2, lr}
 80029d2:	a902      	add	r1, sp, #8
 80029d4:	f801 0d01 	strb.w	r0, [r1, #-1]!
 80029d8:	f04f 5300 	mov.w	r3, #536870912	; 0x20000000
 80029dc:	681b      	ldr	r3, [r3, #0]
 80029de:	2201      	movs	r2, #1
 80029e0:	6918      	ldr	r0, [r3, #16]
 80029e2:	f002 fa67 	bl	8004eb4 <stream_write>
 80029e6:	b003      	add	sp, #12
 80029e8:	f85d fb04 	ldr.w	pc, [sp], #4

080029ec <printf_handler>:
 80029ec:	4603      	mov	r3, r0
 80029ee:	460a      	mov	r2, r1
 80029f0:	f04f 5100 	mov.w	r1, #536870912	; 0x20000000
 80029f4:	6809      	ldr	r1, [r1, #0]
 80029f6:	6908      	ldr	r0, [r1, #16]
 80029f8:	4619      	mov	r1, r3
 80029fa:	f002 ba5b 	b.w	8004eb4 <stream_write>

080029fe <__puts>:
 80029fe:	b538      	push	{r3, r4, r5, lr}
 8002a00:	f04f 5300 	mov.w	r3, #536870912	; 0x20000000
 8002a04:	681b      	ldr	r3, [r3, #0]
 8002a06:	4604      	mov	r4, r0
 8002a08:	691d      	ldr	r5, [r3, #16]
 8002a0a:	f002 fdeb 	bl	80055e4 <strlen>
 8002a0e:	4621      	mov	r1, r4
 8002a10:	4602      	mov	r2, r0
 8002a12:	4628      	mov	r0, r5
 8002a14:	e8bd 4038 	ldmia.w	sp!, {r3, r4, r5, lr}
 8002a18:	f002 ba4c 	b.w	8004eb4 <stream_write>

08002a1c <lib_array_create>:
 8002a1c:	b570      	push	{r4, r5, r6, lr}
 8002a1e:	4606      	mov	r6, r0
 8002a20:	fb03 f002 	mul.w	r0, r3, r2
 8002a24:	461d      	mov	r5, r3
 8002a26:	300c      	adds	r0, #12
 8002a28:	680b      	ldr	r3, [r1, #0]
 8002a2a:	4614      	mov	r4, r2
 8002a2c:	4798      	blx	r3
 8002a2e:	6030      	str	r0, [r6, #0]
 8002a30:	b118      	cbz	r0, 8002a3a <lib_array_create+0x1e>
 8002a32:	2300      	movs	r3, #0
 8002a34:	6045      	str	r5, [r0, #4]
 8002a36:	6003      	str	r3, [r0, #0]
 8002a38:	6084      	str	r4, [r0, #8]
 8002a3a:	bd70      	pop	{r4, r5, r6, pc}

08002a3c <lib_array_destroy>:
 8002a3c:	b510      	push	{r4, lr}
 8002a3e:	4604      	mov	r4, r0
 8002a40:	688b      	ldr	r3, [r1, #8]
 8002a42:	6800      	ldr	r0, [r0, #0]
 8002a44:	4798      	blx	r3
 8002a46:	2300      	movs	r3, #0
 8002a48:	6023      	str	r3, [r4, #0]
 8002a4a:	bd10      	pop	{r4, pc}

08002a4c <lib_array_size>:
 8002a4c:	b100      	cbz	r0, 8002a50 <lib_array_size+0x4>
 8002a4e:	6800      	ldr	r0, [r0, #0]
 8002a50:	4770      	bx	lr

08002a52 <lib_array_clear>:
 8002a52:	6800      	ldr	r0, [r0, #0]
 8002a54:	b108      	cbz	r0, 8002a5a <lib_array_clear+0x8>
 8002a56:	2300      	movs	r3, #0
 8002a58:	6003      	str	r3, [r0, #0]
 8002a5a:	4770      	bx	lr

08002a5c <lib_array_squeeze>:
 8002a5c:	b510      	push	{r4, lr}
 8002a5e:	4604      	mov	r4, r0
 8002a60:	6800      	ldr	r0, [r0, #0]
 8002a62:	b148      	cbz	r0, 8002a78 <lib_array_squeeze+0x1c>
 8002a64:	6882      	ldr	r2, [r0, #8]
 8002a66:	6803      	ldr	r3, [r0, #0]
 8002a68:	4353      	muls	r3, r2
 8002a6a:	684a      	ldr	r2, [r1, #4]
 8002a6c:	f103 010c 	add.w	r1, r3, #12
 8002a70:	4790      	blx	r2
 8002a72:	6803      	ldr	r3, [r0, #0]
 8002a74:	6020      	str	r0, [r4, #0]
 8002a76:	6043      	str	r3, [r0, #4]
 8002a78:	bd10      	pop	{r4, pc}

08002a7a <lib_array_at>:
 8002a7a:	b508      	push	{r3, lr}
 8002a7c:	b160      	cbz	r0, 8002a98 <lib_array_at+0x1e>
 8002a7e:	6803      	ldr	r3, [r0, #0]
 8002a80:	429a      	cmp	r2, r3
 8002a82:	d305      	bcc.n	8002a90 <lib_array_at+0x16>
 8002a84:	f06f 000a 	mvn.w	r0, #10
 8002a88:	f002 f88d 	bl	8004ba6 <error>
 8002a8c:	2000      	movs	r0, #0
 8002a8e:	bd08      	pop	{r3, pc}
 8002a90:	6883      	ldr	r3, [r0, #8]
 8002a92:	fb03 0002 	mla	r0, r3, r2, r0
 8002a96:	300c      	adds	r0, #12
 8002a98:	bd08      	pop	{r3, pc}

08002a9a <lib_array_append>:
 8002a9a:	b538      	push	{r3, r4, r5, lr}
 8002a9c:	4604      	mov	r4, r0
 8002a9e:	6800      	ldr	r0, [r0, #0]
 8002aa0:	460d      	mov	r5, r1
 8002aa2:	b1c8      	cbz	r0, 8002ad8 <lib_array_append+0x3e>
 8002aa4:	e890 000c 	ldmia.w	r0, {r2, r3}
 8002aa8:	4293      	cmp	r3, r2
 8002aaa:	f102 0201 	add.w	r2, r2, #1
 8002aae:	d901      	bls.n	8002ab4 <lib_array_append+0x1a>
 8002ab0:	6002      	str	r2, [r0, #0]
 8002ab2:	e009      	b.n	8002ac8 <lib_array_append+0x2e>
 8002ab4:	6881      	ldr	r1, [r0, #8]
 8002ab6:	3301      	adds	r3, #1
 8002ab8:	4359      	muls	r1, r3
 8002aba:	e880 000c 	stmia.w	r0, {r2, r3}
 8002abe:	310c      	adds	r1, #12
 8002ac0:	686b      	ldr	r3, [r5, #4]
 8002ac2:	4798      	blx	r3
 8002ac4:	b140      	cbz	r0, 8002ad8 <lib_array_append+0x3e>
 8002ac6:	6020      	str	r0, [r4, #0]
 8002ac8:	6820      	ldr	r0, [r4, #0]
 8002aca:	4629      	mov	r1, r5
 8002acc:	e8bd 4038 	ldmia.w	sp!, {r3, r4, r5, lr}
 8002ad0:	6802      	ldr	r2, [r0, #0]
 8002ad2:	3a01      	subs	r2, #1
 8002ad4:	f7ff bfd1 	b.w	8002a7a <lib_array_at>
 8002ad8:	2000      	movs	r0, #0
 8002ada:	bd38      	pop	{r3, r4, r5, pc}

08002adc <lib_array_insert>:
 8002adc:	b5f8      	push	{r3, r4, r5, r6, r7, lr}
 8002ade:	f04f 5300 	mov.w	r3, #536870912	; 0x20000000
 8002ae2:	689b      	ldr	r3, [r3, #8]
 8002ae4:	460e      	mov	r6, r1
 8002ae6:	68db      	ldr	r3, [r3, #12]
 8002ae8:	4912      	ldr	r1, [pc, #72]	; (8002b34 <lib_array_insert+0x58>)
 8002aea:	691b      	ldr	r3, [r3, #16]
 8002aec:	4605      	mov	r5, r0
 8002aee:	4617      	mov	r7, r2
 8002af0:	4798      	blx	r3
 8002af2:	b1f0      	cbz	r0, 8002b32 <lib_array_insert+0x56>
 8002af4:	6829      	ldr	r1, [r5, #0]
 8002af6:	680b      	ldr	r3, [r1, #0]
 8002af8:	429f      	cmp	r7, r3
 8002afa:	d305      	bcc.n	8002b08 <lib_array_insert+0x2c>
 8002afc:	f06f 000a 	mvn.w	r0, #10
 8002b00:	f002 f851 	bl	8004ba6 <error>
 8002b04:	6828      	ldr	r0, [r5, #0]
 8002b06:	bdf8      	pop	{r3, r4, r5, r6, r7, pc}
 8002b08:	688a      	ldr	r2, [r1, #8]
 8002b0a:	3b01      	subs	r3, #1
 8002b0c:	fb07 2402 	mla	r4, r7, r2, r2
 8002b10:	f104 000c 	add.w	r0, r4, #12
 8002b14:	1aa4      	subs	r4, r4, r2
 8002b16:	1bdb      	subs	r3, r3, r7
 8002b18:	340c      	adds	r4, #12
 8002b1a:	435a      	muls	r2, r3
 8002b1c:	4408      	add	r0, r1
 8002b1e:	4421      	add	r1, r4
 8002b20:	f002 fc50 	bl	80053c4 <memmove>
 8002b24:	6828      	ldr	r0, [r5, #0]
 8002b26:	4631      	mov	r1, r6
 8002b28:	463a      	mov	r2, r7
 8002b2a:	e8bd 40f8 	ldmia.w	sp!, {r3, r4, r5, r6, r7, lr}
 8002b2e:	f7ff bfa4 	b.w	8002a7a <lib_array_at>
 8002b32:	bdf8      	pop	{r3, r4, r5, r6, r7, pc}
 8002b34:	08005d94 	.word	0x08005d94

08002b38 <lib_array_remove>:
 8002b38:	6803      	ldr	r3, [r0, #0]
 8002b3a:	b570      	push	{r4, r5, r6, lr}
 8002b3c:	4605      	mov	r5, r0
 8002b3e:	b1d3      	cbz	r3, 8002b76 <lib_array_remove+0x3e>
 8002b40:	681c      	ldr	r4, [r3, #0]
 8002b42:	42a2      	cmp	r2, r4
 8002b44:	d305      	bcc.n	8002b52 <lib_array_remove+0x1a>
 8002b46:	f06f 000a 	mvn.w	r0, #10
 8002b4a:	f002 f82c 	bl	8004ba6 <error>
 8002b4e:	682b      	ldr	r3, [r5, #0]
 8002b50:	e011      	b.n	8002b76 <lib_array_remove+0x3e>
 8002b52:	689e      	ldr	r6, [r3, #8]
 8002b54:	3c01      	subs	r4, #1
 8002b56:	fb06 f102 	mul.w	r1, r6, r2
 8002b5a:	f101 000c 	add.w	r0, r1, #12
 8002b5e:	4431      	add	r1, r6
 8002b60:	310c      	adds	r1, #12
 8002b62:	1aa2      	subs	r2, r4, r2
 8002b64:	4418      	add	r0, r3
 8002b66:	4419      	add	r1, r3
 8002b68:	4372      	muls	r2, r6
 8002b6a:	f002 fc2b 	bl	80053c4 <memmove>
 8002b6e:	682b      	ldr	r3, [r5, #0]
 8002b70:	681a      	ldr	r2, [r3, #0]
 8002b72:	3a01      	subs	r2, #1
 8002b74:	601a      	str	r2, [r3, #0]
 8002b76:	4618      	mov	r0, r3
 8002b78:	bd70      	pop	{r4, r5, r6, pc}

08002b7a <lib_so_create>:
 8002b7a:	b510      	push	{r4, lr}
 8002b7c:	3204      	adds	r2, #4
 8002b7e:	4604      	mov	r4, r0
 8002b80:	f7ff ff4c 	bl	8002a1c <lib_array_create>
 8002b84:	b118      	cbz	r0, 8002b8e <lib_so_create+0x14>
 8002b86:	4620      	mov	r0, r4
 8002b88:	f06f 437f 	mvn.w	r3, #4278190080	; 0xff000000
 8002b8c:	6063      	str	r3, [r4, #4]
 8002b8e:	bd10      	pop	{r4, pc}

08002b90 <lib_so_destroy>:
 8002b90:	f7ff bf54 	b.w	8002a3c <lib_array_destroy>

08002b94 <lib_so_get>:
 8002b94:	b508      	push	{r3, lr}
 8002b96:	0a12      	lsrs	r2, r2, #8
 8002b98:	6800      	ldr	r0, [r0, #0]
 8002b9a:	f7ff ff6e 	bl	8002a7a <lib_array_at>
 8002b9e:	3004      	adds	r0, #4
 8002ba0:	bd08      	pop	{r3, pc}

08002ba2 <lib_so_first>:
 8002ba2:	b570      	push	{r4, r5, r6, lr}
 8002ba4:	4606      	mov	r6, r0
 8002ba6:	460d      	mov	r5, r1
 8002ba8:	2400      	movs	r4, #0
 8002baa:	6830      	ldr	r0, [r6, #0]
 8002bac:	4629      	mov	r1, r5
 8002bae:	f7ff ff4d 	bl	8002a4c <lib_array_size>
 8002bb2:	4284      	cmp	r4, r0
 8002bb4:	d213      	bcs.n	8002bde <lib_so_first+0x3c>
 8002bb6:	4622      	mov	r2, r4
 8002bb8:	6830      	ldr	r0, [r6, #0]
 8002bba:	4629      	mov	r1, r5
 8002bbc:	f7ff ff5d 	bl	8002a7a <lib_array_at>
 8002bc0:	6802      	ldr	r2, [r0, #0]
 8002bc2:	f06f 437f 	mvn.w	r3, #4278190080	; 0xff000000
 8002bc6:	ebb3 2f12 	cmp.w	r3, r2, lsr #8
 8002bca:	d006      	beq.n	8002bda <lib_so_first+0x38>
 8002bcc:	6830      	ldr	r0, [r6, #0]
 8002bce:	4629      	mov	r1, r5
 8002bd0:	4622      	mov	r2, r4
 8002bd2:	f7ff ff52 	bl	8002a7a <lib_array_at>
 8002bd6:	6800      	ldr	r0, [r0, #0]
 8002bd8:	bd70      	pop	{r4, r5, r6, pc}
 8002bda:	3401      	adds	r4, #1
 8002bdc:	e7e5      	b.n	8002baa <lib_so_first+0x8>
 8002bde:	f04f 30ff 	mov.w	r0, #4294967295
 8002be2:	bd70      	pop	{r4, r5, r6, pc}

08002be4 <lib_so_next>:
 8002be4:	b570      	push	{r4, r5, r6, lr}
 8002be6:	4606      	mov	r6, r0
 8002be8:	460d      	mov	r5, r1
 8002bea:	0a12      	lsrs	r2, r2, #8
 8002bec:	1c54      	adds	r4, r2, #1
 8002bee:	6830      	ldr	r0, [r6, #0]
 8002bf0:	4629      	mov	r1, r5
 8002bf2:	f7ff ff2b 	bl	8002a4c <lib_array_size>
 8002bf6:	4284      	cmp	r4, r0
 8002bf8:	d213      	bcs.n	8002c22 <lib_so_next+0x3e>
 8002bfa:	4622      	mov	r2, r4
 8002bfc:	6830      	ldr	r0, [r6, #0]
 8002bfe:	4629      	mov	r1, r5
 8002c00:	f7ff ff3b 	bl	8002a7a <lib_array_at>
 8002c04:	6802      	ldr	r2, [r0, #0]
 8002c06:	f06f 437f 	mvn.w	r3, #4278190080	; 0xff000000
 8002c0a:	ebb3 2f12 	cmp.w	r3, r2, lsr #8
 8002c0e:	d006      	beq.n	8002c1e <lib_so_next+0x3a>
 8002c10:	6830      	ldr	r0, [r6, #0]
 8002c12:	4629      	mov	r1, r5
 8002c14:	4622      	mov	r2, r4
 8002c16:	f7ff ff30 	bl	8002a7a <lib_array_at>
 8002c1a:	6800      	ldr	r0, [r0, #0]
 8002c1c:	bd70      	pop	{r4, r5, r6, pc}
 8002c1e:	3401      	adds	r4, #1
 8002c20:	e7e5      	b.n	8002bee <lib_so_next+0xa>
 8002c22:	f04f 30ff 	mov.w	r0, #4294967295
 8002c26:	bd70      	pop	{r4, r5, r6, pc}

08002c28 <lib_so_count>:
 8002c28:	b570      	push	{r4, r5, r6, lr}
 8002c2a:	4605      	mov	r5, r0
 8002c2c:	6800      	ldr	r0, [r0, #0]
 8002c2e:	460e      	mov	r6, r1
 8002c30:	f7ff ff0c 	bl	8002a4c <lib_array_size>
 8002c34:	4604      	mov	r4, r0
 8002c36:	686a      	ldr	r2, [r5, #4]
 8002c38:	f06f 437f 	mvn.w	r3, #4278190080	; 0xff000000
 8002c3c:	429a      	cmp	r2, r3
 8002c3e:	d007      	beq.n	8002c50 <lib_so_count+0x28>
 8002c40:	6828      	ldr	r0, [r5, #0]
 8002c42:	4631      	mov	r1, r6
 8002c44:	f7ff ff19 	bl	8002a7a <lib_array_at>
 8002c48:	6802      	ldr	r2, [r0, #0]
 8002c4a:	3c01      	subs	r4, #1
 8002c4c:	0a12      	lsrs	r2, r2, #8
 8002c4e:	e7f3      	b.n	8002c38 <lib_so_count+0x10>
 8002c50:	4620      	mov	r0, r4
 8002c52:	bd70      	pop	{r4, r5, r6, pc}

08002c54 <lib_so_check_handle>:
 8002c54:	b5f8      	push	{r3, r4, r5, r6, r7, lr}
 8002c56:	4605      	mov	r5, r0
 8002c58:	6800      	ldr	r0, [r0, #0]
 8002c5a:	0a14      	lsrs	r4, r2, #8
 8002c5c:	460f      	mov	r7, r1
 8002c5e:	4616      	mov	r6, r2
 8002c60:	f7ff fef4 	bl	8002a4c <lib_array_size>
 8002c64:	4284      	cmp	r4, r0
 8002c66:	d302      	bcc.n	8002c6e <lib_so_check_handle+0x1a>
 8002c68:	f06f 000a 	mvn.w	r0, #10
 8002c6c:	e019      	b.n	8002ca2 <lib_so_check_handle+0x4e>
 8002c6e:	4622      	mov	r2, r4
 8002c70:	6828      	ldr	r0, [r5, #0]
 8002c72:	4639      	mov	r1, r7
 8002c74:	f7ff ff01 	bl	8002a7a <lib_array_at>
 8002c78:	6802      	ldr	r2, [r0, #0]
 8002c7a:	f06f 437f 	mvn.w	r3, #4278190080	; 0xff000000
 8002c7e:	ebb3 2f12 	cmp.w	r3, r2, lsr #8
 8002c82:	d102      	bne.n	8002c8a <lib_so_check_handle+0x36>
 8002c84:	f06f 0004 	mvn.w	r0, #4
 8002c88:	e00b      	b.n	8002ca2 <lib_so_check_handle+0x4e>
 8002c8a:	4622      	mov	r2, r4
 8002c8c:	6828      	ldr	r0, [r5, #0]
 8002c8e:	4639      	mov	r1, r7
 8002c90:	f7ff fef3 	bl	8002a7a <lib_array_at>
 8002c94:	6802      	ldr	r2, [r0, #0]
 8002c96:	4072      	eors	r2, r6
 8002c98:	f012 0fff 	tst.w	r2, #255	; 0xff
 8002c9c:	d005      	beq.n	8002caa <lib_so_check_handle+0x56>
 8002c9e:	f06f 0007 	mvn.w	r0, #7
 8002ca2:	f001 ff80 	bl	8004ba6 <error>
 8002ca6:	2000      	movs	r0, #0
 8002ca8:	bdf8      	pop	{r3, r4, r5, r6, r7, pc}
 8002caa:	2001      	movs	r0, #1
 8002cac:	bdf8      	pop	{r3, r4, r5, r6, r7, pc}

08002cae <lib_so_allocate>:
 8002cae:	b5f8      	push	{r3, r4, r5, r6, r7, lr}
 8002cb0:	6844      	ldr	r4, [r0, #4]
 8002cb2:	f06f 437f 	mvn.w	r3, #4278190080	; 0xff000000
 8002cb6:	429c      	cmp	r4, r3
 8002cb8:	4605      	mov	r5, r0
 8002cba:	460e      	mov	r6, r1
 8002cbc:	d115      	bne.n	8002cea <lib_so_allocate+0x3c>
 8002cbe:	f7ff feec 	bl	8002a9a <lib_array_append>
 8002cc2:	b338      	cbz	r0, 8002d14 <lib_so_allocate+0x66>
 8002cc4:	682c      	ldr	r4, [r5, #0]
 8002cc6:	4631      	mov	r1, r6
 8002cc8:	4620      	mov	r0, r4
 8002cca:	f7ff febf 	bl	8002a4c <lib_array_size>
 8002cce:	4631      	mov	r1, r6
 8002cd0:	1e42      	subs	r2, r0, #1
 8002cd2:	4620      	mov	r0, r4
 8002cd4:	f7ff fed1 	bl	8002a7a <lib_array_at>
 8002cd8:	4631      	mov	r1, r6
 8002cda:	4607      	mov	r7, r0
 8002cdc:	6828      	ldr	r0, [r5, #0]
 8002cde:	f7ff feb5 	bl	8002a4c <lib_array_size>
 8002ce2:	3801      	subs	r0, #1
 8002ce4:	0204      	lsls	r4, r0, #8
 8002ce6:	603c      	str	r4, [r7, #0]
 8002ce8:	e016      	b.n	8002d18 <lib_so_allocate+0x6a>
 8002cea:	4622      	mov	r2, r4
 8002cec:	6800      	ldr	r0, [r0, #0]
 8002cee:	f7ff fec4 	bl	8002a7a <lib_array_at>
 8002cf2:	7800      	ldrb	r0, [r0, #0]
 8002cf4:	4631      	mov	r1, r6
 8002cf6:	ea40 2404 	orr.w	r4, r0, r4, lsl #8
 8002cfa:	686a      	ldr	r2, [r5, #4]
 8002cfc:	6828      	ldr	r0, [r5, #0]
 8002cfe:	f7ff febc 	bl	8002a7a <lib_array_at>
 8002d02:	6004      	str	r4, [r0, #0]
 8002d04:	4631      	mov	r1, r6
 8002d06:	6828      	ldr	r0, [r5, #0]
 8002d08:	686a      	ldr	r2, [r5, #4]
 8002d0a:	f7ff feb6 	bl	8002a7a <lib_array_at>
 8002d0e:	6843      	ldr	r3, [r0, #4]
 8002d10:	606b      	str	r3, [r5, #4]
 8002d12:	e001      	b.n	8002d18 <lib_so_allocate+0x6a>
 8002d14:	f04f 34ff 	mov.w	r4, #4294967295
 8002d18:	4620      	mov	r0, r4
 8002d1a:	bdf8      	pop	{r3, r4, r5, r6, r7, pc}

08002d1c <lib_so_free>:
 8002d1c:	b5f8      	push	{r3, r4, r5, r6, r7, lr}
 8002d1e:	4605      	mov	r5, r0
 8002d20:	460f      	mov	r7, r1
 8002d22:	4614      	mov	r4, r2
 8002d24:	f7ff ff96 	bl	8002c54 <lib_so_check_handle>
 8002d28:	b188      	cbz	r0, 8002d4e <lib_so_free+0x32>
 8002d2a:	0a26      	lsrs	r6, r4, #8
 8002d2c:	4639      	mov	r1, r7
 8002d2e:	4632      	mov	r2, r6
 8002d30:	6828      	ldr	r0, [r5, #0]
 8002d32:	f7ff fea2 	bl	8002a7a <lib_array_at>
 8002d36:	686b      	ldr	r3, [r5, #4]
 8002d38:	4639      	mov	r1, r7
 8002d3a:	6043      	str	r3, [r0, #4]
 8002d3c:	4632      	mov	r2, r6
 8002d3e:	606e      	str	r6, [r5, #4]
 8002d40:	6828      	ldr	r0, [r5, #0]
 8002d42:	f7ff fe9a 	bl	8002a7a <lib_array_at>
 8002d46:	3401      	adds	r4, #1
 8002d48:	f064 04ff 	orn	r4, r4, #255	; 0xff
 8002d4c:	6004      	str	r4, [r0, #0]
 8002d4e:	bdf8      	pop	{r3, r4, r5, r6, r7, pc}

08002d50 <stm32_gpio_enable_pin>:
 8002d50:	b5f0      	push	{r4, r5, r6, r7, lr}
 8002d52:	090c      	lsrs	r4, r1, #4
 8002d54:	f850 5024 	ldr.w	r5, [r0, r4, lsl #2]
 8002d58:	1d2e      	adds	r6, r5, #4
 8002d5a:	f840 6024 	str.w	r6, [r0, r4, lsl #2]
 8002d5e:	b945      	cbnz	r5, 8002d72 <stm32_gpio_enable_pin+0x22>
 8002d60:	4828      	ldr	r0, [pc, #160]	; (8002e04 <stm32_gpio_enable_pin+0xb4>)
 8002d62:	4e29      	ldr	r6, [pc, #164]	; (8002e08 <stm32_gpio_enable_pin+0xb8>)
 8002d64:	f850 7024 	ldr.w	r7, [r0, r4, lsl #2]
 8002d68:	69f5      	ldr	r5, [r6, #28]
 8002d6a:	2001      	movs	r0, #1
 8002d6c:	40b8      	lsls	r0, r7
 8002d6e:	4328      	orrs	r0, r5
 8002d70:	61f0      	str	r0, [r6, #28]
 8002d72:	4826      	ldr	r0, [pc, #152]	; (8002e0c <stm32_gpio_enable_pin+0xbc>)
 8002d74:	2503      	movs	r5, #3
 8002d76:	f850 0024 	ldr.w	r0, [r0, r4, lsl #2]
 8002d7a:	f001 040f 	and.w	r4, r1, #15
 8002d7e:	0066      	lsls	r6, r4, #1
 8002d80:	40b5      	lsls	r5, r6
 8002d82:	43ed      	mvns	r5, r5
 8002d84:	6807      	ldr	r7, [r0, #0]
 8002d86:	f002 0e03 	and.w	lr, r2, #3
 8002d8a:	402f      	ands	r7, r5
 8002d8c:	6007      	str	r7, [r0, #0]
 8002d8e:	6807      	ldr	r7, [r0, #0]
 8002d90:	fa0e fe06 	lsl.w	lr, lr, r6
 8002d94:	ea4e 0707 	orr.w	r7, lr, r7
 8002d98:	6007      	str	r7, [r0, #0]
 8002d9a:	6847      	ldr	r7, [r0, #4]
 8002d9c:	f04f 0e01 	mov.w	lr, #1
 8002da0:	fa0e fe04 	lsl.w	lr, lr, r4
 8002da4:	ea27 070e 	bic.w	r7, r7, lr
 8002da8:	6047      	str	r7, [r0, #4]
 8002daa:	6847      	ldr	r7, [r0, #4]
 8002dac:	f3c2 0e80 	ubfx	lr, r2, #2, #1
 8002db0:	fa0e fe04 	lsl.w	lr, lr, r4
 8002db4:	ea4e 0707 	orr.w	r7, lr, r7
 8002db8:	6047      	str	r7, [r0, #4]
 8002dba:	6887      	ldr	r7, [r0, #8]
 8002dbc:	f3c2 0ec1 	ubfx	lr, r2, #3, #2
 8002dc0:	402f      	ands	r7, r5
 8002dc2:	6087      	str	r7, [r0, #8]
 8002dc4:	6887      	ldr	r7, [r0, #8]
 8002dc6:	fa0e fe06 	lsl.w	lr, lr, r6
 8002dca:	ea4e 0707 	orr.w	r7, lr, r7
 8002dce:	6087      	str	r7, [r0, #8]
 8002dd0:	68c7      	ldr	r7, [r0, #12]
 8002dd2:	f3c2 1241 	ubfx	r2, r2, #5, #2
 8002dd6:	403d      	ands	r5, r7
 8002dd8:	60c5      	str	r5, [r0, #12]
 8002dda:	68c5      	ldr	r5, [r0, #12]
 8002ddc:	40b2      	lsls	r2, r6
 8002dde:	432a      	orrs	r2, r5
 8002de0:	f001 0107 	and.w	r1, r1, #7
 8002de4:	60c2      	str	r2, [r0, #12]
 8002de6:	10e4      	asrs	r4, r4, #3
 8002de8:	3020      	adds	r0, #32
 8002dea:	0089      	lsls	r1, r1, #2
 8002dec:	220f      	movs	r2, #15
 8002dee:	fa02 f501 	lsl.w	r5, r2, r1
 8002df2:	f850 2024 	ldr.w	r2, [r0, r4, lsl #2]
 8002df6:	408b      	lsls	r3, r1
 8002df8:	ea22 0205 	bic.w	r2, r2, r5
 8002dfc:	4313      	orrs	r3, r2
 8002dfe:	f840 3024 	str.w	r3, [r0, r4, lsl #2]
 8002e02:	bdf0      	pop	{r4, r5, r6, r7, pc}
 8002e04:	08005c78 	.word	0x08005c78
 8002e08:	40023800 	.word	0x40023800
 8002e0c:	08005c88 	.word	0x08005c88

08002e10 <stm32_gpio_enable_exti>:
 8002e10:	b570      	push	{r4, r5, r6, lr}
 8002e12:	f001 050f 	and.w	r5, r1, #15
 8002e16:	f005 030c 	and.w	r3, r5, #12
 8002e1a:	f103 4380 	add.w	r3, r3, #1073741824	; 0x40000000
 8002e1e:	f503 3380 	add.w	r3, r3, #65536	; 0x10000
 8002e22:	689c      	ldr	r4, [r3, #8]
 8002e24:	f001 0603 	and.w	r6, r1, #3
 8002e28:	200f      	movs	r0, #15
 8002e2a:	40b0      	lsls	r0, r6
 8002e2c:	ea24 0000 	bic.w	r0, r4, r0
 8002e30:	6098      	str	r0, [r3, #8]
 8002e32:	6898      	ldr	r0, [r3, #8]
 8002e34:	0909      	lsrs	r1, r1, #4
 8002e36:	40b1      	lsls	r1, r6
 8002e38:	4301      	orrs	r1, r0
 8002e3a:	6099      	str	r1, [r3, #8]
 8002e3c:	2101      	movs	r1, #1
 8002e3e:	40a9      	lsls	r1, r5
 8002e40:	43cd      	mvns	r5, r1
 8002e42:	4b0c      	ldr	r3, [pc, #48]	; (8002e74 <stm32_gpio_enable_exti+0x64>)
 8002e44:	689c      	ldr	r4, [r3, #8]
 8002e46:	402c      	ands	r4, r5
 8002e48:	609c      	str	r4, [r3, #8]
 8002e4a:	68d8      	ldr	r0, [r3, #12]
 8002e4c:	4028      	ands	r0, r5
 8002e4e:	60d8      	str	r0, [r3, #12]
 8002e50:	07d0      	lsls	r0, r2, #31
 8002e52:	bf42      	ittt	mi
 8002e54:	6898      	ldrmi	r0, [r3, #8]
 8002e56:	4308      	orrmi	r0, r1
 8002e58:	6098      	strmi	r0, [r3, #8]
 8002e5a:	0792      	lsls	r2, r2, #30
 8002e5c:	bf42      	ittt	mi
 8002e5e:	68da      	ldrmi	r2, [r3, #12]
 8002e60:	430a      	orrmi	r2, r1
 8002e62:	60da      	strmi	r2, [r3, #12]
 8002e64:	681a      	ldr	r2, [r3, #0]
 8002e66:	430a      	orrs	r2, r1
 8002e68:	601a      	str	r2, [r3, #0]
 8002e6a:	685a      	ldr	r2, [r3, #4]
 8002e6c:	4311      	orrs	r1, r2
 8002e6e:	6059      	str	r1, [r3, #4]
 8002e70:	bd70      	pop	{r4, r5, r6, pc}
 8002e72:	bf00      	nop
 8002e74:	40010400 	.word	0x40010400

08002e78 <stm32_gpio_disable_pin>:
 8002e78:	b5f0      	push	{r4, r5, r6, r7, lr}
 8002e7a:	f001 040f 	and.w	r4, r1, #15
 8002e7e:	ea4f 0e44 	mov.w	lr, r4, lsl #1
 8002e82:	2203      	movs	r2, #3
 8002e84:	fa02 f20e 	lsl.w	r2, r2, lr
 8002e88:	43d2      	mvns	r2, r2
 8002e8a:	4b1f      	ldr	r3, [pc, #124]	; (8002f08 <stm32_gpio_disable_pin+0x90>)
 8002e8c:	090e      	lsrs	r6, r1, #4
 8002e8e:	f853 3026 	ldr.w	r3, [r3, r6, lsl #2]
 8002e92:	f001 0107 	and.w	r1, r1, #7
 8002e96:	681d      	ldr	r5, [r3, #0]
 8002e98:	0089      	lsls	r1, r1, #2
 8002e9a:	4015      	ands	r5, r2
 8002e9c:	601d      	str	r5, [r3, #0]
 8002e9e:	681d      	ldr	r5, [r3, #0]
 8002ea0:	3320      	adds	r3, #32
 8002ea2:	f843 5c20 	str.w	r5, [r3, #-32]
 8002ea6:	f853 5c18 	ldr.w	r5, [r3, #-24]
 8002eaa:	4015      	ands	r5, r2
 8002eac:	f843 5c18 	str.w	r5, [r3, #-24]
 8002eb0:	f853 7c18 	ldr.w	r7, [r3, #-24]
 8002eb4:	2501      	movs	r5, #1
 8002eb6:	fa05 fe0e 	lsl.w	lr, r5, lr
 8002eba:	ea4e 0707 	orr.w	r7, lr, r7
 8002ebe:	f843 7c18 	str.w	r7, [r3, #-24]
 8002ec2:	f853 7c14 	ldr.w	r7, [r3, #-20]
 8002ec6:	403a      	ands	r2, r7
 8002ec8:	f843 2c14 	str.w	r2, [r3, #-20]
 8002ecc:	f853 2c14 	ldr.w	r2, [r3, #-20]
 8002ed0:	f843 2c14 	str.w	r2, [r3, #-20]
 8002ed4:	10e2      	asrs	r2, r4, #3
 8002ed6:	240f      	movs	r4, #15
 8002ed8:	408c      	lsls	r4, r1
 8002eda:	f853 1022 	ldr.w	r1, [r3, r2, lsl #2]
 8002ede:	ea21 0104 	bic.w	r1, r1, r4
 8002ee2:	f843 1022 	str.w	r1, [r3, r2, lsl #2]
 8002ee6:	f850 3026 	ldr.w	r3, [r0, r6, lsl #2]
 8002eea:	3b04      	subs	r3, #4
 8002eec:	f840 3026 	str.w	r3, [r0, r6, lsl #2]
 8002ef0:	b943      	cbnz	r3, 8002f04 <stm32_gpio_disable_pin+0x8c>
 8002ef2:	4906      	ldr	r1, [pc, #24]	; (8002f0c <stm32_gpio_disable_pin+0x94>)
 8002ef4:	4a06      	ldr	r2, [pc, #24]	; (8002f10 <stm32_gpio_disable_pin+0x98>)
 8002ef6:	f851 1026 	ldr.w	r1, [r1, r6, lsl #2]
 8002efa:	69d3      	ldr	r3, [r2, #28]
 8002efc:	408d      	lsls	r5, r1
 8002efe:	ea23 0505 	bic.w	r5, r3, r5
 8002f02:	61d5      	str	r5, [r2, #28]
 8002f04:	bdf0      	pop	{r4, r5, r6, r7, pc}
 8002f06:	bf00      	nop
 8002f08:	08005c88 	.word	0x08005c88
 8002f0c:	08005c78 	.word	0x08005c78
 8002f10:	40023800 	.word	0x40023800

08002f14 <stm32_gpio_disable_exti>:
 8002f14:	f001 010f 	and.w	r1, r1, #15
 8002f18:	2201      	movs	r2, #1
 8002f1a:	408a      	lsls	r2, r1
 8002f1c:	43d2      	mvns	r2, r2
 8002f1e:	4b07      	ldr	r3, [pc, #28]	; (8002f3c <stm32_gpio_disable_exti+0x28>)
 8002f20:	6818      	ldr	r0, [r3, #0]
 8002f22:	4010      	ands	r0, r2
 8002f24:	6018      	str	r0, [r3, #0]
 8002f26:	6859      	ldr	r1, [r3, #4]
 8002f28:	4011      	ands	r1, r2
 8002f2a:	6059      	str	r1, [r3, #4]
 8002f2c:	6899      	ldr	r1, [r3, #8]
 8002f2e:	4011      	ands	r1, r2
 8002f30:	6099      	str	r1, [r3, #8]
 8002f32:	68d9      	ldr	r1, [r3, #12]
 8002f34:	400a      	ands	r2, r1
 8002f36:	60da      	str	r2, [r3, #12]
 8002f38:	4770      	bx	lr
 8002f3a:	bf00      	nop
 8002f3c:	40010400 	.word	0x40010400

08002f40 <stm32_pin_init>:
 8002f40:	2100      	movs	r1, #0
 8002f42:	2210      	movs	r2, #16
 8002f44:	f002 baa2 	b.w	800548c <memset>

08002f48 <stm32_pin_request>:
 8002f48:	684a      	ldr	r2, [r1, #4]
 8002f4a:	460b      	mov	r3, r1
 8002f4c:	f3c2 020e 	ubfx	r2, r2, #0, #15
 8002f50:	2a09      	cmp	r2, #9
 8002f52:	d011      	beq.n	8002f78 <stm32_pin_request+0x30>
 8002f54:	d806      	bhi.n	8002f64 <stm32_pin_request+0x1c>
 8002f56:	2a08      	cmp	r2, #8
 8002f58:	d115      	bne.n	8002f86 <stm32_pin_request+0x3e>
 8002f5a:	68da      	ldr	r2, [r3, #12]
 8002f5c:	7a09      	ldrb	r1, [r1, #8]
 8002f5e:	7c1b      	ldrb	r3, [r3, #16]
 8002f60:	f7ff bef6 	b.w	8002d50 <stm32_gpio_enable_pin>
 8002f64:	f5b2 7f80 	cmp.w	r2, #256	; 0x100
 8002f68:	d009      	beq.n	8002f7e <stm32_pin_request+0x36>
 8002f6a:	f240 1101 	movw	r1, #257	; 0x101
 8002f6e:	428a      	cmp	r2, r1
 8002f70:	d109      	bne.n	8002f86 <stm32_pin_request+0x3e>
 8002f72:	7a19      	ldrb	r1, [r3, #8]
 8002f74:	f7ff bfce 	b.w	8002f14 <stm32_gpio_disable_exti>
 8002f78:	7a09      	ldrb	r1, [r1, #8]
 8002f7a:	f7ff bf7d 	b.w	8002e78 <stm32_gpio_disable_pin>
 8002f7e:	7a09      	ldrb	r1, [r1, #8]
 8002f80:	68da      	ldr	r2, [r3, #12]
 8002f82:	f7ff bf45 	b.w	8002e10 <stm32_gpio_enable_exti>
 8002f86:	f06f 0001 	mvn.w	r0, #1
 8002f8a:	f001 be0c 	b.w	8004ba6 <error>

08002f8e <gpio_enable_pin>:
 8002f8e:	2903      	cmp	r1, #3
 8002f90:	d80d      	bhi.n	8002fae <gpio_enable_pin+0x20>
 8002f92:	e8df f001 	tbb	[pc, r1]
 8002f96:	0402      	.short	0x0402
 8002f98:	0806      	.short	0x0806
 8002f9a:	2119      	movs	r1, #25
 8002f9c:	e004      	b.n	8002fa8 <gpio_enable_pin+0x1a>
 8002f9e:	2118      	movs	r1, #24
 8002fa0:	e002      	b.n	8002fa8 <gpio_enable_pin+0x1a>
 8002fa2:	2138      	movs	r1, #56	; 0x38
 8002fa4:	e000      	b.n	8002fa8 <gpio_enable_pin+0x1a>
 8002fa6:	2158      	movs	r1, #88	; 0x58
 8002fa8:	2200      	movs	r2, #0
 8002faa:	f001 bfc5 	b.w	8004f38 <pin_enable>
 8002fae:	4770      	bx	lr

08002fb0 <gpio_set_pin>:
 8002fb0:	4b04      	ldr	r3, [pc, #16]	; (8002fc4 <gpio_set_pin+0x14>)
 8002fb2:	0902      	lsrs	r2, r0, #4
 8002fb4:	f853 2022 	ldr.w	r2, [r3, r2, lsl #2]
 8002fb8:	f000 000f 	and.w	r0, r0, #15
 8002fbc:	2301      	movs	r3, #1
 8002fbe:	4083      	lsls	r3, r0
 8002fc0:	6193      	str	r3, [r2, #24]
 8002fc2:	4770      	bx	lr
 8002fc4:	08005c88 	.word	0x08005c88

08002fc8 <gpio_reset_pin>:
 8002fc8:	4b05      	ldr	r3, [pc, #20]	; (8002fe0 <gpio_reset_pin+0x18>)
 8002fca:	0902      	lsrs	r2, r0, #4
 8002fcc:	f000 000f 	and.w	r0, r0, #15
 8002fd0:	f853 2022 	ldr.w	r2, [r3, r2, lsl #2]
 8002fd4:	3010      	adds	r0, #16
 8002fd6:	2301      	movs	r3, #1
 8002fd8:	4083      	lsls	r3, r0
 8002fda:	6193      	str	r3, [r2, #24]
 8002fdc:	4770      	bx	lr
 8002fde:	bf00      	nop
 8002fe0:	08005c88 	.word	0x08005c88

08002fe4 <stm32_power_set_vrange>:
 8002fe4:	4b07      	ldr	r3, [pc, #28]	; (8003004 <stm32_power_set_vrange+0x20>)
 8002fe6:	685a      	ldr	r2, [r3, #4]
 8002fe8:	06d1      	lsls	r1, r2, #27
 8002fea:	d4fb      	bmi.n	8002fe4 <stm32_power_set_vrange>
 8002fec:	681a      	ldr	r2, [r3, #0]
 8002fee:	f000 0003 	and.w	r0, r0, #3
 8002ff2:	f422 52c0 	bic.w	r2, r2, #6144	; 0x1800
 8002ff6:	ea42 20c0 	orr.w	r0, r2, r0, lsl #11
 8002ffa:	6018      	str	r0, [r3, #0]
 8002ffc:	685a      	ldr	r2, [r3, #4]
 8002ffe:	06d2      	lsls	r2, r2, #27
 8003000:	d4fc      	bmi.n	8002ffc <stm32_power_set_vrange+0x18>
 8003002:	4770      	bx	lr
 8003004:	40007000 	.word	0x40007000

08003008 <stm32_power_get_pll_clock>:
 8003008:	490c      	ldr	r1, [pc, #48]	; (800303c <stm32_power_get_pll_clock+0x34>)
 800300a:	688b      	ldr	r3, [r1, #8]
 800300c:	688a      	ldr	r2, [r1, #8]
 800300e:	f3c3 4380 	ubfx	r3, r3, #18, #1
 8003012:	3303      	adds	r3, #3
 8003014:	f3c2 42c2 	ubfx	r2, r2, #19, #3
 8003018:	6888      	ldr	r0, [r1, #8]
 800301a:	fa03 f202 	lsl.w	r2, r3, r2
 800301e:	688b      	ldr	r3, [r1, #8]
 8003020:	4907      	ldr	r1, [pc, #28]	; (8003040 <stm32_power_get_pll_clock+0x38>)
 8003022:	f413 3f80 	tst.w	r3, #65536	; 0x10000
 8003026:	4b07      	ldr	r3, [pc, #28]	; (8003044 <stm32_power_get_pll_clock+0x3c>)
 8003028:	bf18      	it	ne
 800302a:	460b      	movne	r3, r1
 800302c:	4353      	muls	r3, r2
 800302e:	f3c0 5081 	ubfx	r0, r0, #22, #2
 8003032:	3001      	adds	r0, #1
 8003034:	fbb3 f0f0 	udiv	r0, r3, r0
 8003038:	4770      	bx	lr
 800303a:	bf00      	nop
 800303c:	40023800 	.word	0x40023800
 8003040:	00b71b00 	.word	0x00b71b00
 8003044:	00f42400 	.word	0x00f42400

08003048 <stm32_power_hse_on>:
 8003048:	4b06      	ldr	r3, [pc, #24]	; (8003064 <stm32_power_hse_on+0x1c>)
 800304a:	681a      	ldr	r2, [r3, #0]
 800304c:	03d1      	lsls	r1, r2, #15
 800304e:	d406      	bmi.n	800305e <stm32_power_hse_on+0x16>
 8003050:	681a      	ldr	r2, [r3, #0]
 8003052:	f442 3280 	orr.w	r2, r2, #65536	; 0x10000
 8003056:	601a      	str	r2, [r3, #0]
 8003058:	681a      	ldr	r2, [r3, #0]
 800305a:	0392      	lsls	r2, r2, #14
 800305c:	d5fc      	bpl.n	8003058 <stm32_power_hse_on+0x10>
 800305e:	2001      	movs	r0, #1
 8003060:	4770      	bx	lr
 8003062:	bf00      	nop
 8003064:	40023800 	.word	0x40023800

08003068 <stm32_power_set_clock_source>:
 8003068:	b538      	push	{r3, r4, r5, lr}
 800306a:	b928      	cbnz	r0, 8003078 <stm32_power_set_clock_source+0x10>
 800306c:	f7ff ffec 	bl	8003048 <stm32_power_hse_on>
 8003070:	f080 0001 	eor.w	r0, r0, #1
 8003074:	b2c0      	uxtb	r0, r0
 8003076:	e01b      	b.n	80030b0 <stm32_power_set_clock_source+0x48>
 8003078:	2803      	cmp	r0, #3
 800307a:	d119      	bne.n	80030b0 <stm32_power_set_clock_source+0x48>
 800307c:	f7ff ffe4 	bl	8003048 <stm32_power_hse_on>
 8003080:	4605      	mov	r5, r0
 8003082:	4c47      	ldr	r4, [pc, #284]	; (80031a0 <stm32_power_set_clock_source+0x138>)
 8003084:	2001      	movs	r0, #1
 8003086:	68a3      	ldr	r3, [r4, #8]
 8003088:	f423 037c 	bic.w	r3, r3, #16515072	; 0xfc0000
 800308c:	60a3      	str	r3, [r4, #8]
 800308e:	68a3      	ldr	r3, [r4, #8]
 8003090:	f443 2340 	orr.w	r3, r3, #786432	; 0xc0000
 8003094:	60a3      	str	r3, [r4, #8]
 8003096:	68a3      	ldr	r3, [r4, #8]
 8003098:	f443 034c 	orr.w	r3, r3, #13369344	; 0xcc0000
 800309c:	60a3      	str	r3, [r4, #8]
 800309e:	f7ff ffa1 	bl	8002fe4 <stm32_power_set_vrange>
 80030a2:	4623      	mov	r3, r4
 80030a4:	b19d      	cbz	r5, 80030ce <stm32_power_set_clock_source+0x66>
 80030a6:	68a3      	ldr	r3, [r4, #8]
 80030a8:	f443 3380 	orr.w	r3, r3, #65536	; 0x10000
 80030ac:	60a3      	str	r3, [r4, #8]
 80030ae:	e01a      	b.n	80030e6 <stm32_power_set_clock_source+0x7e>
 80030b0:	b328      	cbz	r0, 80030fe <stm32_power_set_clock_source+0x96>
 80030b2:	2802      	cmp	r0, #2
 80030b4:	bf03      	ittte	eq
 80030b6:	4b3a      	ldreq	r3, [pc, #232]	; (80031a0 <stm32_power_set_clock_source+0x138>)
 80030b8:	f44f 3080 	moveq.w	r0, #65536	; 0x10000
 80030bc:	685b      	ldreq	r3, [r3, #4]
 80030be:	4839      	ldrne	r0, [pc, #228]	; (80031a4 <stm32_power_set_clock_source+0x13c>)
 80030c0:	bf09      	itett	eq
 80030c2:	f3c3 3342 	ubfxeq	r3, r3, #13, #3
 80030c6:	2201      	movne	r2, #1
 80030c8:	4098      	lsleq	r0, r3
 80030ca:	2200      	moveq	r2, #0
 80030cc:	e019      	b.n	8003102 <stm32_power_set_clock_source+0x9a>
 80030ce:	6822      	ldr	r2, [r4, #0]
 80030d0:	f042 0201 	orr.w	r2, r2, #1
 80030d4:	6022      	str	r2, [r4, #0]
 80030d6:	6819      	ldr	r1, [r3, #0]
 80030d8:	4a31      	ldr	r2, [pc, #196]	; (80031a0 <stm32_power_set_clock_source+0x138>)
 80030da:	0789      	lsls	r1, r1, #30
 80030dc:	d5fb      	bpl.n	80030d6 <stm32_power_set_clock_source+0x6e>
 80030de:	6893      	ldr	r3, [r2, #8]
 80030e0:	f423 3380 	bic.w	r3, r3, #65536	; 0x10000
 80030e4:	6093      	str	r3, [r2, #8]
 80030e6:	4b2e      	ldr	r3, [pc, #184]	; (80031a0 <stm32_power_set_clock_source+0x138>)
 80030e8:	681a      	ldr	r2, [r3, #0]
 80030ea:	f042 7280 	orr.w	r2, r2, #16777216	; 0x1000000
 80030ee:	601a      	str	r2, [r3, #0]
 80030f0:	681a      	ldr	r2, [r3, #0]
 80030f2:	0192      	lsls	r2, r2, #6
 80030f4:	d5fc      	bpl.n	80030f0 <stm32_power_set_clock_source+0x88>
 80030f6:	f7ff ff87 	bl	8003008 <stm32_power_get_pll_clock>
 80030fa:	2203      	movs	r2, #3
 80030fc:	e001      	b.n	8003102 <stm32_power_set_clock_source+0x9a>
 80030fe:	482a      	ldr	r0, [pc, #168]	; (80031a8 <stm32_power_set_clock_source+0x140>)
 8003100:	2202      	movs	r2, #2
 8003102:	4b27      	ldr	r3, [pc, #156]	; (80031a0 <stm32_power_set_clock_source+0x138>)
 8003104:	6899      	ldr	r1, [r3, #8]
 8003106:	2300      	movs	r3, #0
 8003108:	f421 5160 	bic.w	r1, r1, #14336	; 0x3800
 800310c:	4c27      	ldr	r4, [pc, #156]	; (80031ac <stm32_power_set_clock_source+0x144>)
 800310e:	fa20 f503 	lsr.w	r5, r0, r3
 8003112:	42a5      	cmp	r5, r4
 8003114:	d903      	bls.n	800311e <stm32_power_set_clock_source+0xb6>
 8003116:	3301      	adds	r3, #1
 8003118:	2b05      	cmp	r3, #5
 800311a:	d1f7      	bne.n	800310c <stm32_power_set_clock_source+0xa4>
 800311c:	e000      	b.n	8003120 <stm32_power_set_clock_source+0xb8>
 800311e:	b103      	cbz	r3, 8003122 <stm32_power_set_clock_source+0xba>
 8003120:	3303      	adds	r3, #3
 8003122:	4c1f      	ldr	r4, [pc, #124]	; (80031a0 <stm32_power_set_clock_source+0x138>)
 8003124:	ea41 21c3 	orr.w	r1, r1, r3, lsl #11
 8003128:	60a1      	str	r1, [r4, #8]
 800312a:	68a1      	ldr	r1, [r4, #8]
 800312c:	f421 61e0 	bic.w	r1, r1, #1792	; 0x700
 8003130:	ea41 2303 	orr.w	r3, r1, r3, lsl #8
 8003134:	60a3      	str	r3, [r4, #8]
 8003136:	4b1e      	ldr	r3, [pc, #120]	; (80031b0 <stm32_power_set_clock_source+0x148>)
 8003138:	6819      	ldr	r1, [r3, #0]
 800313a:	f041 0104 	orr.w	r1, r1, #4
 800313e:	6019      	str	r1, [r3, #0]
 8003140:	6819      	ldr	r1, [r3, #0]
 8003142:	f041 0102 	orr.w	r1, r1, #2
 8003146:	6019      	str	r1, [r3, #0]
 8003148:	491a      	ldr	r1, [pc, #104]	; (80031b4 <stm32_power_set_clock_source+0x14c>)
 800314a:	6809      	ldr	r1, [r1, #0]
 800314c:	f3c1 21c1 	ubfx	r1, r1, #11, #2
 8003150:	2903      	cmp	r1, #3
 8003152:	d101      	bne.n	8003158 <stm32_power_set_clock_source+0xf0>
 8003154:	4918      	ldr	r1, [pc, #96]	; (80031b8 <stm32_power_set_clock_source+0x150>)
 8003156:	e006      	b.n	8003166 <stm32_power_set_clock_source+0xfe>
 8003158:	2902      	cmp	r1, #2
 800315a:	d101      	bne.n	8003160 <stm32_power_set_clock_source+0xf8>
 800315c:	4917      	ldr	r1, [pc, #92]	; (80031bc <stm32_power_set_clock_source+0x154>)
 800315e:	e002      	b.n	8003166 <stm32_power_set_clock_source+0xfe>
 8003160:	2901      	cmp	r1, #1
 8003162:	d106      	bne.n	8003172 <stm32_power_set_clock_source+0x10a>
 8003164:	490f      	ldr	r1, [pc, #60]	; (80031a4 <stm32_power_set_clock_source+0x13c>)
 8003166:	4288      	cmp	r0, r1
 8003168:	d903      	bls.n	8003172 <stm32_power_set_clock_source+0x10a>
 800316a:	6819      	ldr	r1, [r3, #0]
 800316c:	f041 0101 	orr.w	r1, r1, #1
 8003170:	e002      	b.n	8003178 <stm32_power_set_clock_source+0x110>
 8003172:	6819      	ldr	r1, [r3, #0]
 8003174:	f021 0101 	bic.w	r1, r1, #1
 8003178:	6019      	str	r1, [r3, #0]
 800317a:	f3bf 8f4f 	dsb	sy
 800317e:	f3bf 8f5f 	dmb	sy
 8003182:	bf00      	nop
 8003184:	bf00      	nop
 8003186:	4b06      	ldr	r3, [pc, #24]	; (80031a0 <stm32_power_set_clock_source+0x138>)
 8003188:	6899      	ldr	r1, [r3, #8]
 800318a:	4311      	orrs	r1, r2
 800318c:	6099      	str	r1, [r3, #8]
 800318e:	6899      	ldr	r1, [r3, #8]
 8003190:	f3c1 0181 	ubfx	r1, r1, #2, #2
 8003194:	4291      	cmp	r1, r2
 8003196:	d1fa      	bne.n	800318e <stm32_power_set_clock_source+0x126>
 8003198:	bf00      	nop
 800319a:	bf00      	nop
 800319c:	bd38      	pop	{r3, r4, r5, pc}
 800319e:	bf00      	nop
 80031a0:	40023800 	.word	0x40023800
 80031a4:	00f42400 	.word	0x00f42400
 80031a8:	00b71b00 	.word	0x00b71b00
 80031ac:	01e84800 	.word	0x01e84800
 80031b0:	40023c00 	.word	0x40023c00
 80031b4:	40007000 	.word	0x40007000
 80031b8:	001e8480 	.word	0x001e8480
 80031bc:	007a1200 	.word	0x007a1200

080031c0 <stm32_power_update_core_clock>:
 80031c0:	e92d 41f0 	stmdb	sp!, {r4, r5, r6, r7, r8, lr}
 80031c4:	4605      	mov	r5, r0
 80031c6:	b672      	cpsid	i
 80031c8:	4c0b      	ldr	r4, [pc, #44]	; (80031f8 <stm32_power_update_core_clock+0x38>)
 80031ca:	2300      	movs	r3, #0
 80031cc:	6a67      	ldr	r7, [r4, #36]	; 0x24
 80031ce:	6263      	str	r3, [r4, #36]	; 0x24
 80031d0:	6a26      	ldr	r6, [r4, #32]
 80031d2:	6223      	str	r3, [r4, #32]
 80031d4:	f8d4 801c 	ldr.w	r8, [r4, #28]
 80031d8:	61e3      	str	r3, [r4, #28]
 80031da:	bf00      	nop
 80031dc:	bf00      	nop
 80031de:	4608      	mov	r0, r1
 80031e0:	f7ff ff42 	bl	8003068 <stm32_power_set_clock_source>
 80031e4:	f8c4 801c 	str.w	r8, [r4, #28]
 80031e8:	4628      	mov	r0, r5
 80031ea:	6267      	str	r7, [r4, #36]	; 0x24
 80031ec:	6226      	str	r6, [r4, #32]
 80031ee:	f000 fa0f 	bl	8003610 <stm32_timer_pm_event>
 80031f2:	b662      	cpsie	i
 80031f4:	e8bd 81f0 	ldmia.w	sp!, {r4, r5, r6, r7, r8, pc}
 80031f8:	40023800 	.word	0x40023800

080031fc <get_core_clock>:
 80031fc:	4b0e      	ldr	r3, [pc, #56]	; (8003238 <get_core_clock+0x3c>)
 80031fe:	689a      	ldr	r2, [r3, #8]
 8003200:	f002 020c 	and.w	r2, r2, #12
 8003204:	2a0c      	cmp	r2, #12
 8003206:	d813      	bhi.n	8003230 <get_core_clock+0x34>
 8003208:	e8df f002 	tbb	[pc, r2]
 800320c:	12121209 	.word	0x12121209
 8003210:	12121214 	.word	0x12121214
 8003214:	12121207 	.word	0x12121207
 8003218:	10          	.byte	0x10
 8003219:	00          	.byte	0x00
 800321a:	4808      	ldr	r0, [pc, #32]	; (800323c <get_core_clock+0x40>)
 800321c:	4770      	bx	lr
 800321e:	685b      	ldr	r3, [r3, #4]
 8003220:	f44f 3080 	mov.w	r0, #65536	; 0x10000
 8003224:	f3c3 3342 	ubfx	r3, r3, #13, #3
 8003228:	4098      	lsls	r0, r3
 800322a:	4770      	bx	lr
 800322c:	f7ff beec 	b.w	8003008 <stm32_power_get_pll_clock>
 8003230:	2000      	movs	r0, #0
 8003232:	4770      	bx	lr
 8003234:	4802      	ldr	r0, [pc, #8]	; (8003240 <get_core_clock+0x44>)
 8003236:	4770      	bx	lr
 8003238:	40023800 	.word	0x40023800
 800323c:	00b71b00 	.word	0x00b71b00
 8003240:	00f42400 	.word	0x00f42400

08003244 <get_ahb_clock>:
 8003244:	4b0a      	ldr	r3, [pc, #40]	; (8003270 <get_ahb_clock+0x2c>)
 8003246:	b510      	push	{r4, lr}
 8003248:	689a      	ldr	r2, [r3, #8]
 800324a:	0612      	lsls	r2, r2, #24
 800324c:	d509      	bpl.n	8003262 <get_ahb_clock+0x1e>
 800324e:	689b      	ldr	r3, [r3, #8]
 8003250:	2401      	movs	r4, #1
 8003252:	f3c3 1302 	ubfx	r3, r3, #4, #3
 8003256:	3301      	adds	r3, #1
 8003258:	409c      	lsls	r4, r3
 800325a:	2c1f      	cmp	r4, #31
 800325c:	dd02      	ble.n	8003264 <get_ahb_clock+0x20>
 800325e:	0064      	lsls	r4, r4, #1
 8003260:	e000      	b.n	8003264 <get_ahb_clock+0x20>
 8003262:	2401      	movs	r4, #1
 8003264:	f7ff ffca 	bl	80031fc <get_core_clock>
 8003268:	fb90 f0f4 	sdiv	r0, r0, r4
 800326c:	bd10      	pop	{r4, pc}
 800326e:	bf00      	nop
 8003270:	40023800 	.word	0x40023800

08003274 <get_apb2_clock>:
 8003274:	4b08      	ldr	r3, [pc, #32]	; (8003298 <get_apb2_clock+0x24>)
 8003276:	b510      	push	{r4, lr}
 8003278:	689a      	ldr	r2, [r3, #8]
 800327a:	0492      	lsls	r2, r2, #18
 800327c:	bf41      	itttt	mi
 800327e:	689b      	ldrmi	r3, [r3, #8]
 8003280:	2401      	movmi	r4, #1
 8003282:	f3c3 23c1 	ubfxmi	r3, r3, #11, #2
 8003286:	3301      	addmi	r3, #1
 8003288:	bf4c      	ite	mi
 800328a:	409c      	lslmi	r4, r3
 800328c:	2401      	movpl	r4, #1
 800328e:	f7ff ffd9 	bl	8003244 <get_ahb_clock>
 8003292:	fb90 f0f4 	sdiv	r0, r0, r4
 8003296:	bd10      	pop	{r4, pc}
 8003298:	40023800 	.word	0x40023800

0800329c <get_apb1_clock>:
 800329c:	4b08      	ldr	r3, [pc, #32]	; (80032c0 <get_apb1_clock+0x24>)
 800329e:	b510      	push	{r4, lr}
 80032a0:	689a      	ldr	r2, [r3, #8]
 80032a2:	0552      	lsls	r2, r2, #21
 80032a4:	bf41      	itttt	mi
 80032a6:	689b      	ldrmi	r3, [r3, #8]
 80032a8:	2401      	movmi	r4, #1
 80032aa:	f3c3 2301 	ubfxmi	r3, r3, #8, #2
 80032ae:	3301      	addmi	r3, #1
 80032b0:	bf4c      	ite	mi
 80032b2:	409c      	lslmi	r4, r3
 80032b4:	2401      	movpl	r4, #1
 80032b6:	f7ff ffc5 	bl	8003244 <get_ahb_clock>
 80032ba:	fb90 f0f4 	sdiv	r0, r0, r4
 80032be:	bd10      	pop	{r4, pc}
 80032c0:	40023800 	.word	0x40023800

080032c4 <stm32_power_get_clock>:
 80032c4:	b508      	push	{r3, lr}
 80032c6:	2803      	cmp	r0, #3
 80032c8:	d813      	bhi.n	80032f2 <stm32_power_get_clock+0x2e>
 80032ca:	e8df f000 	tbb	[pc, r0]
 80032ce:	0602      	.short	0x0602
 80032d0:	0a0e      	.short	0x0a0e
 80032d2:	e8bd 4008 	ldmia.w	sp!, {r3, lr}
 80032d6:	f7ff bf91 	b.w	80031fc <get_core_clock>
 80032da:	e8bd 4008 	ldmia.w	sp!, {r3, lr}
 80032de:	f7ff bfb1 	b.w	8003244 <get_ahb_clock>
 80032e2:	e8bd 4008 	ldmia.w	sp!, {r3, lr}
 80032e6:	f7ff bfc5 	b.w	8003274 <get_apb2_clock>
 80032ea:	e8bd 4008 	ldmia.w	sp!, {r3, lr}
 80032ee:	f7ff bfd5 	b.w	800329c <get_apb1_clock>
 80032f2:	f06f 0006 	mvn.w	r0, #6
 80032f6:	f001 fc56 	bl	8004ba6 <error>
 80032fa:	2000      	movs	r0, #0
 80032fc:	bd08      	pop	{r3, pc}
 80032fe:	0000      	movs	r0, r0

08003300 <stm32_power_init>:
 8003300:	4b0a      	ldr	r3, [pc, #40]	; (800332c <stm32_power_init+0x2c>)
 8003302:	2200      	movs	r2, #0
 8003304:	625a      	str	r2, [r3, #36]	; 0x24
 8003306:	621a      	str	r2, [r3, #32]
 8003308:	61da      	str	r2, [r3, #28]
 800330a:	609a      	str	r2, [r3, #8]
 800330c:	6a5a      	ldr	r2, [r3, #36]	; 0x24
 800330e:	2003      	movs	r0, #3
 8003310:	f042 5280 	orr.w	r2, r2, #268435456	; 0x10000000
 8003314:	625a      	str	r2, [r3, #36]	; 0x24
 8003316:	6a1a      	ldr	r2, [r3, #32]
 8003318:	f042 0201 	orr.w	r2, r2, #1
 800331c:	621a      	str	r2, [r3, #32]
 800331e:	4a04      	ldr	r2, [pc, #16]	; (8003330 <stm32_power_init+0x30>)
 8003320:	6853      	ldr	r3, [r2, #4]
 8003322:	f423 63e0 	bic.w	r3, r3, #1792	; 0x700
 8003326:	6053      	str	r3, [r2, #4]
 8003328:	f7ff be9e 	b.w	8003068 <stm32_power_set_clock_source>
 800332c:	40023800 	.word	0x40023800
 8003330:	40007000 	.word	0x40007000

08003334 <stm32_power_request>:
 8003334:	684b      	ldr	r3, [r1, #4]
 8003336:	b510      	push	{r4, lr}
 8003338:	f3c3 030e 	ubfx	r3, r3, #0, #15
 800333c:	f5b3 7f80 	cmp.w	r3, #256	; 0x100
 8003340:	460c      	mov	r4, r1
 8003342:	d008      	beq.n	8003356 <stm32_power_request+0x22>
 8003344:	f240 1201 	movw	r2, #257	; 0x101
 8003348:	4293      	cmp	r3, r2
 800334a:	d131      	bne.n	80033b0 <stm32_power_request+0x7c>
 800334c:	6888      	ldr	r0, [r1, #8]
 800334e:	f7ff ffb9 	bl	80032c4 <stm32_power_get_clock>
 8003352:	60e0      	str	r0, [r4, #12]
 8003354:	bd10      	pop	{r4, pc}
 8003356:	7a0b      	ldrb	r3, [r1, #8]
 8003358:	2b01      	cmp	r3, #1
 800335a:	d018      	beq.n	800338e <stm32_power_request+0x5a>
 800335c:	d312      	bcc.n	8003384 <stm32_power_request+0x50>
 800335e:	2b04      	cmp	r3, #4
 8003360:	d126      	bne.n	80033b0 <stm32_power_request+0x7c>
 8003362:	b672      	cpsid	i
 8003364:	4a15      	ldr	r2, [pc, #84]	; (80033bc <stm32_power_request+0x88>)
 8003366:	6913      	ldr	r3, [r2, #16]
 8003368:	f043 0304 	orr.w	r3, r3, #4
 800336c:	6113      	str	r3, [r2, #16]
 800336e:	4b14      	ldr	r3, [pc, #80]	; (80033c0 <stm32_power_request+0x8c>)
 8003370:	681a      	ldr	r2, [r3, #0]
 8003372:	f042 0202 	orr.w	r2, r2, #2
 8003376:	601a      	str	r2, [r3, #0]
 8003378:	681a      	ldr	r2, [r3, #0]
 800337a:	f042 0204 	orr.w	r2, r2, #4
 800337e:	601a      	str	r2, [r3, #0]
 8003380:	bf30      	wfi
 8003382:	bd10      	pop	{r4, pc}
 8003384:	2103      	movs	r1, #3
 8003386:	e8bd 4010 	ldmia.w	sp!, {r4, lr}
 800338a:	f7ff bf19 	b.w	80031c0 <stm32_power_update_core_clock>
 800338e:	2102      	movs	r1, #2
 8003390:	f7ff ff16 	bl	80031c0 <stm32_power_update_core_clock>
 8003394:	e8bd 4010 	ldmia.w	sp!, {r4, lr}
 8003398:	4b0a      	ldr	r3, [pc, #40]	; (80033c4 <stm32_power_request+0x90>)
 800339a:	2003      	movs	r0, #3
 800339c:	681a      	ldr	r2, [r3, #0]
 800339e:	f022 7280 	bic.w	r2, r2, #16777216	; 0x1000000
 80033a2:	601a      	str	r2, [r3, #0]
 80033a4:	681a      	ldr	r2, [r3, #0]
 80033a6:	f422 3280 	bic.w	r2, r2, #65536	; 0x10000
 80033aa:	601a      	str	r2, [r3, #0]
 80033ac:	f7ff be1a 	b.w	8002fe4 <stm32_power_set_vrange>
 80033b0:	f06f 0001 	mvn.w	r0, #1
 80033b4:	e8bd 4010 	ldmia.w	sp!, {r4, lr}
 80033b8:	f001 bbf5 	b.w	8004ba6 <error>
 80033bc:	e000ed00 	.word	0xe000ed00
 80033c0:	40007000 	.word	0x40007000
 80033c4:	40023800 	.word	0x40023800

080033c8 <stm32_timer_setup_clk>:
 80033c8:	0bcb      	lsrs	r3, r1, #15
 80033ca:	bf08      	it	eq
 80033cc:	2301      	moveq	r3, #1
 80033ce:	fbb1 f1f3 	udiv	r1, r1, r3
 80033d2:	2901      	cmp	r1, #1
 80033d4:	d905      	bls.n	80033e2 <stm32_timer_setup_clk+0x1a>
 80033d6:	f1b1 1f01 	cmp.w	r1, #65537	; 0x10001
 80033da:	bf28      	it	cs
 80033dc:	f44f 3180 	movcs.w	r1, #65536	; 0x10000
 80033e0:	e000      	b.n	80033e4 <stm32_timer_setup_clk+0x1c>
 80033e2:	2102      	movs	r1, #2
 80033e4:	4a03      	ldr	r2, [pc, #12]	; (80033f4 <stm32_timer_setup_clk+0x2c>)
 80033e6:	3b01      	subs	r3, #1
 80033e8:	f852 2020 	ldr.w	r2, [r2, r0, lsl #2]
 80033ec:	3901      	subs	r1, #1
 80033ee:	6293      	str	r3, [r2, #40]	; 0x28
 80033f0:	62d1      	str	r1, [r2, #44]	; 0x2c
 80033f2:	4770      	bx	lr
 80033f4:	08005c98 	.word	0x08005c98

080033f8 <hpet_elapsed>:
 80033f8:	f04f 4280 	mov.w	r2, #1073741824	; 0x40000000
 80033fc:	6a93      	ldr	r3, [r2, #40]	; 0x28
 80033fe:	6900      	ldr	r0, [r0, #16]
 8003400:	3301      	adds	r3, #1
 8003402:	fbb3 f0f0 	udiv	r0, r3, r0
 8003406:	6a52      	ldr	r2, [r2, #36]	; 0x24
 8003408:	fb02 0000 	mla	r0, r2, r0, r0
 800340c:	4770      	bx	lr

0800340e <hpet_isr>:
 800340e:	f04f 4280 	mov.w	r2, #1073741824	; 0x40000000
 8003412:	6913      	ldr	r3, [r2, #16]
 8003414:	f023 0301 	bic.w	r3, r3, #1
 8003418:	6113      	str	r3, [r2, #16]
 800341a:	f001 bc6d 	b.w	8004cf8 <systime_hpet_timeout>
 800341e:	0000      	movs	r0, r0

08003420 <second_pulse_isr>:
 8003420:	4a03      	ldr	r2, [pc, #12]	; (8003430 <second_pulse_isr+0x10>)
 8003422:	6913      	ldr	r3, [r2, #16]
 8003424:	f023 0301 	bic.w	r3, r3, #1
 8003428:	6113      	str	r3, [r2, #16]
 800342a:	f001 bc59 	b.w	8004ce0 <systime_second_pulse>
 800342e:	bf00      	nop
 8003430:	40001000 	.word	0x40001000

08003434 <stm32_timer_get_clock>:
 8003434:	b5f0      	push	{r4, r5, r6, r7, lr}
 8003436:	460f      	mov	r7, r1
 8003438:	4605      	mov	r5, r0
 800343a:	b087      	sub	sp, #28
 800343c:	4c0d      	ldr	r4, [pc, #52]	; (8003474 <stm32_timer_get_clock+0x40>)
 800343e:	2301      	movs	r3, #1
 8003440:	a901      	add	r1, sp, #4
 8003442:	9303      	str	r3, [sp, #12]
 8003444:	9402      	str	r4, [sp, #8]
 8003446:	f7ff ff75 	bl	8003334 <stm32_power_request>
 800344a:	4b0b      	ldr	r3, [pc, #44]	; (8003478 <stm32_timer_get_clock+0x44>)
 800344c:	4628      	mov	r0, r5
 800344e:	f853 2027 	ldr.w	r2, [r3, r7, lsl #2]
 8003452:	4b0a      	ldr	r3, [pc, #40]	; (800347c <stm32_timer_get_clock+0x48>)
 8003454:	a901      	add	r1, sp, #4
 8003456:	429a      	cmp	r2, r3
 8003458:	bf0c      	ite	eq
 800345a:	2303      	moveq	r3, #3
 800345c:	2302      	movne	r3, #2
 800345e:	9e04      	ldr	r6, [sp, #16]
 8003460:	9402      	str	r4, [sp, #8]
 8003462:	9303      	str	r3, [sp, #12]
 8003464:	f7ff ff66 	bl	8003334 <stm32_power_request>
 8003468:	9804      	ldr	r0, [sp, #16]
 800346a:	4286      	cmp	r6, r0
 800346c:	bf18      	it	ne
 800346e:	0040      	lslne	r0, r0, #1
 8003470:	b007      	add	sp, #28
 8003472:	bdf0      	pop	{r4, r5, r6, r7, pc}
 8003474:	00038101 	.word	0x00038101
 8003478:	08005cbc 	.word	0x08005cbc
 800347c:	40023820 	.word	0x40023820

08003480 <stm32_timer_open>:
 8003480:	4b26      	ldr	r3, [pc, #152]	; (800351c <stm32_timer_open+0x9c>)
 8003482:	b530      	push	{r4, r5, lr}
 8003484:	f853 0021 	ldr.w	r0, [r3, r1, lsl #2]
 8003488:	4b25      	ldr	r3, [pc, #148]	; (8003520 <stm32_timer_open+0xa0>)
 800348a:	f853 4021 	ldr.w	r4, [r3, r1, lsl #2]
 800348e:	2301      	movs	r3, #1
 8003490:	40a3      	lsls	r3, r4
 8003492:	6804      	ldr	r4, [r0, #0]
 8003494:	4323      	orrs	r3, r4
 8003496:	6003      	str	r3, [r0, #0]
 8003498:	4b22      	ldr	r3, [pc, #136]	; (8003524 <stm32_timer_open+0xa4>)
 800349a:	f853 3021 	ldr.w	r3, [r3, r1, lsl #2]
 800349e:	6818      	ldr	r0, [r3, #0]
 80034a0:	f040 0004 	orr.w	r0, r0, #4
 80034a4:	6018      	str	r0, [r3, #0]
 80034a6:	0790      	lsls	r0, r2, #30
 80034a8:	bf42      	ittt	mi
 80034aa:	6818      	ldrmi	r0, [r3, #0]
 80034ac:	f040 0008 	orrmi.w	r0, r0, #8
 80034b0:	6018      	strmi	r0, [r3, #0]
 80034b2:	f012 0404 	ands.w	r4, r2, #4
 80034b6:	bf1e      	ittt	ne
 80034b8:	68d8      	ldrne	r0, [r3, #12]
 80034ba:	f040 0001 	orrne.w	r0, r0, #1
 80034be:	60d8      	strne	r0, [r3, #12]
 80034c0:	03d5      	lsls	r5, r2, #15
 80034c2:	bf42      	ittt	mi
 80034c4:	68d8      	ldrmi	r0, [r3, #12]
 80034c6:	f440 7080 	orrmi.w	r0, r0, #256	; 0x100
 80034ca:	60d8      	strmi	r0, [r3, #12]
 80034cc:	07d0      	lsls	r0, r2, #31
 80034ce:	bf42      	ittt	mi
 80034d0:	6898      	ldrmi	r0, [r3, #8]
 80034d2:	f440 4080 	orrmi.w	r0, r0, #16384	; 0x4000
 80034d6:	6098      	strmi	r0, [r3, #8]
 80034d8:	b1f4      	cbz	r4, 8003518 <stm32_timer_open+0x98>
 80034da:	4b13      	ldr	r3, [pc, #76]	; (8003528 <stm32_timer_open+0xa8>)
 80034dc:	2001      	movs	r0, #1
 80034de:	f813 1021 	ldrb.w	r1, [r3, r1, lsl #2]
 80034e2:	f3c2 2207 	ubfx	r2, r2, #8, #8
 80034e6:	f001 041f 	and.w	r4, r1, #31
 80034ea:	b24b      	sxtb	r3, r1
 80034ec:	40a0      	lsls	r0, r4
 80034ee:	4c0f      	ldr	r4, [pc, #60]	; (800352c <stm32_timer_open+0xac>)
 80034f0:	095d      	lsrs	r5, r3, #5
 80034f2:	2b00      	cmp	r3, #0
 80034f4:	f844 0025 	str.w	r0, [r4, r5, lsl #2]
 80034f8:	ea4f 1202 	mov.w	r2, r2, lsl #4
 80034fc:	da05      	bge.n	800350a <stm32_timer_open+0x8a>
 80034fe:	4b0c      	ldr	r3, [pc, #48]	; (8003530 <stm32_timer_open+0xb0>)
 8003500:	f001 010f 	and.w	r1, r1, #15
 8003504:	b2d2      	uxtb	r2, r2
 8003506:	545a      	strb	r2, [r3, r1]
 8003508:	bd30      	pop	{r4, r5, pc}
 800350a:	f103 4360 	add.w	r3, r3, #3758096384	; 0xe0000000
 800350e:	b2d2      	uxtb	r2, r2
 8003510:	f503 4361 	add.w	r3, r3, #57600	; 0xe100
 8003514:	f883 2300 	strb.w	r2, [r3, #768]	; 0x300
 8003518:	bd30      	pop	{r4, r5, pc}
 800351a:	bf00      	nop
 800351c:	08005cbc 	.word	0x08005cbc
 8003520:	08005ce0 	.word	0x08005ce0
 8003524:	08005c98 	.word	0x08005c98
 8003528:	08005d0c 	.word	0x08005d0c
 800352c:	e000e100 	.word	0xe000e100
 8003530:	e000ed14 	.word	0xe000ed14

08003534 <stm32_timer_close>:
 8003534:	4b10      	ldr	r3, [pc, #64]	; (8003578 <stm32_timer_close+0x44>)
 8003536:	b510      	push	{r4, lr}
 8003538:	f853 2021 	ldr.w	r2, [r3, r1, lsl #2]
 800353c:	6813      	ldr	r3, [r2, #0]
 800353e:	f023 0301 	bic.w	r3, r3, #1
 8003542:	6013      	str	r3, [r2, #0]
 8003544:	4b0d      	ldr	r3, [pc, #52]	; (800357c <stm32_timer_close+0x48>)
 8003546:	f853 2021 	ldr.w	r2, [r3, r1, lsl #2]
 800354a:	f002 001f 	and.w	r0, r2, #31
 800354e:	b253      	sxtb	r3, r2
 8003550:	2201      	movs	r2, #1
 8003552:	fa02 f400 	lsl.w	r4, r2, r0
 8003556:	095b      	lsrs	r3, r3, #5
 8003558:	4809      	ldr	r0, [pc, #36]	; (8003580 <stm32_timer_close+0x4c>)
 800355a:	3320      	adds	r3, #32
 800355c:	f840 4023 	str.w	r4, [r0, r3, lsl #2]
 8003560:	4b08      	ldr	r3, [pc, #32]	; (8003584 <stm32_timer_close+0x50>)
 8003562:	f853 0021 	ldr.w	r0, [r3, r1, lsl #2]
 8003566:	4b08      	ldr	r3, [pc, #32]	; (8003588 <stm32_timer_close+0x54>)
 8003568:	f853 3021 	ldr.w	r3, [r3, r1, lsl #2]
 800356c:	409a      	lsls	r2, r3
 800356e:	6803      	ldr	r3, [r0, #0]
 8003570:	ea23 0202 	bic.w	r2, r3, r2
 8003574:	6002      	str	r2, [r0, #0]
 8003576:	bd10      	pop	{r4, pc}
 8003578:	08005c98 	.word	0x08005c98
 800357c:	08005d0c 	.word	0x08005d0c
 8003580:	e000e100 	.word	0xe000e100
 8003584:	08005cbc 	.word	0x08005cbc
 8003588:	08005ce0 	.word	0x08005ce0

0800358c <stm32_timer_start>:
 800358c:	b538      	push	{r3, r4, r5, lr}
 800358e:	460d      	mov	r5, r1
 8003590:	461c      	mov	r4, r3
 8003592:	b14a      	cbz	r2, 80035a8 <stm32_timer_start+0x1c>
 8003594:	2a01      	cmp	r2, #1
 8003596:	d10d      	bne.n	80035b4 <stm32_timer_start+0x28>
 8003598:	f7ff ff4c 	bl	8003434 <stm32_timer_get_clock>
 800359c:	490d      	ldr	r1, [pc, #52]	; (80035d4 <stm32_timer_start+0x48>)
 800359e:	fbb0 f1f1 	udiv	r1, r0, r1
 80035a2:	4628      	mov	r0, r5
 80035a4:	4361      	muls	r1, r4
 80035a6:	e007      	b.n	80035b8 <stm32_timer_start+0x2c>
 80035a8:	f7ff ff44 	bl	8003434 <stm32_timer_get_clock>
 80035ac:	fbb0 f1f4 	udiv	r1, r0, r4
 80035b0:	4628      	mov	r0, r5
 80035b2:	e001      	b.n	80035b8 <stm32_timer_start+0x2c>
 80035b4:	4608      	mov	r0, r1
 80035b6:	4619      	mov	r1, r3
 80035b8:	f7ff ff06 	bl	80033c8 <stm32_timer_setup_clk>
 80035bc:	4b06      	ldr	r3, [pc, #24]	; (80035d8 <stm32_timer_start+0x4c>)
 80035be:	2200      	movs	r2, #0
 80035c0:	f853 3025 	ldr.w	r3, [r3, r5, lsl #2]
 80035c4:	625a      	str	r2, [r3, #36]	; 0x24
 80035c6:	2201      	movs	r2, #1
 80035c8:	615a      	str	r2, [r3, #20]
 80035ca:	681a      	ldr	r2, [r3, #0]
 80035cc:	f042 0201 	orr.w	r2, r2, #1
 80035d0:	601a      	str	r2, [r3, #0]
 80035d2:	bd38      	pop	{r3, r4, r5, pc}
 80035d4:	000f4240 	.word	0x000f4240
 80035d8:	08005c98 	.word	0x08005c98

080035dc <hpet_start>:
 80035dc:	690b      	ldr	r3, [r1, #16]
 80035de:	2202      	movs	r2, #2
 80035e0:	4343      	muls	r3, r0
 80035e2:	4608      	mov	r0, r1
 80035e4:	2100      	movs	r1, #0
 80035e6:	f7ff bfd1 	b.w	800358c <stm32_timer_start>
 80035ea:	0000      	movs	r0, r0

080035ec <stm32_timer_stop>:
 80035ec:	4b05      	ldr	r3, [pc, #20]	; (8003604 <stm32_timer_stop+0x18>)
 80035ee:	f853 3020 	ldr.w	r3, [r3, r0, lsl #2]
 80035f2:	681a      	ldr	r2, [r3, #0]
 80035f4:	f022 0201 	bic.w	r2, r2, #1
 80035f8:	601a      	str	r2, [r3, #0]
 80035fa:	691a      	ldr	r2, [r3, #16]
 80035fc:	f022 0201 	bic.w	r2, r2, #1
 8003600:	611a      	str	r2, [r3, #16]
 8003602:	4770      	bx	lr
 8003604:	08005c98 	.word	0x08005c98

08003608 <hpet_stop>:
 8003608:	2000      	movs	r0, #0
 800360a:	f7ff bfef 	b.w	80035ec <stm32_timer_stop>
 800360e:	0000      	movs	r0, r0

08003610 <stm32_timer_pm_event>:
 8003610:	b510      	push	{r4, lr}
 8003612:	2100      	movs	r1, #0
 8003614:	4604      	mov	r4, r0
 8003616:	f7ff ff0d 	bl	8003434 <stm32_timer_get_clock>
 800361a:	4b07      	ldr	r3, [pc, #28]	; (8003638 <stm32_timer_pm_event+0x28>)
 800361c:	fbb0 f0f3 	udiv	r0, r0, r3
 8003620:	6120      	str	r0, [r4, #16]
 8003622:	2004      	movs	r0, #4
 8003624:	f7ff ffe2 	bl	80035ec <stm32_timer_stop>
 8003628:	4620      	mov	r0, r4
 800362a:	e8bd 4010 	ldmia.w	sp!, {r4, lr}
 800362e:	2104      	movs	r1, #4
 8003630:	2200      	movs	r2, #0
 8003632:	2301      	movs	r3, #1
 8003634:	f7ff bfaa 	b.w	800358c <stm32_timer_start>
 8003638:	000f4240 	.word	0x000f4240

0800363c <stm32_timer_init>:
 800363c:	b51f      	push	{r0, r1, r2, r3, r4, lr}
 800363e:	4604      	mov	r4, r0
 8003640:	4a18      	ldr	r2, [pc, #96]	; (80036a4 <stm32_timer_init+0x68>)
 8003642:	4623      	mov	r3, r4
 8003644:	200a      	movs	r0, #10
 8003646:	211c      	movs	r1, #28
 8003648:	f7fc fe12 	bl	8000270 <svc_call>
 800364c:	4620      	mov	r0, r4
 800364e:	2100      	movs	r1, #0
 8003650:	f7ff fef0 	bl	8003434 <stm32_timer_get_clock>
 8003654:	4b14      	ldr	r3, [pc, #80]	; (80036a8 <stm32_timer_init+0x6c>)
 8003656:	f640 5206 	movw	r2, #3334	; 0xd06
 800365a:	fbb0 f0f3 	udiv	r0, r0, r3
 800365e:	2100      	movs	r1, #0
 8003660:	6120      	str	r0, [r4, #16]
 8003662:	4620      	mov	r0, r4
 8003664:	f7ff ff0c 	bl	8003480 <stm32_timer_open>
 8003668:	4b10      	ldr	r3, [pc, #64]	; (80036ac <stm32_timer_init+0x70>)
 800366a:	a801      	add	r0, sp, #4
 800366c:	9301      	str	r3, [sp, #4]
 800366e:	4b10      	ldr	r3, [pc, #64]	; (80036b0 <stm32_timer_init+0x74>)
 8003670:	4621      	mov	r1, r4
 8003672:	9302      	str	r3, [sp, #8]
 8003674:	4b0f      	ldr	r3, [pc, #60]	; (80036b4 <stm32_timer_init+0x78>)
 8003676:	9303      	str	r3, [sp, #12]
 8003678:	f001 fb2b 	bl	8004cd2 <systime_hpet_setup>
 800367c:	4623      	mov	r3, r4
 800367e:	200a      	movs	r0, #10
 8003680:	212b      	movs	r1, #43	; 0x2b
 8003682:	4a0d      	ldr	r2, [pc, #52]	; (80036b8 <stm32_timer_init+0x7c>)
 8003684:	f7fc fdf4 	bl	8000270 <svc_call>
 8003688:	4620      	mov	r0, r4
 800368a:	2104      	movs	r1, #4
 800368c:	f640 5204 	movw	r2, #3332	; 0xd04
 8003690:	f7ff fef6 	bl	8003480 <stm32_timer_open>
 8003694:	4620      	mov	r0, r4
 8003696:	2104      	movs	r1, #4
 8003698:	2200      	movs	r2, #0
 800369a:	2301      	movs	r3, #1
 800369c:	f7ff ff76 	bl	800358c <stm32_timer_start>
 80036a0:	b004      	add	sp, #16
 80036a2:	bd10      	pop	{r4, pc}
 80036a4:	0800340f 	.word	0x0800340f
 80036a8:	000f4240 	.word	0x000f4240
 80036ac:	080035dd 	.word	0x080035dd
 80036b0:	08003609 	.word	0x08003609
 80036b4:	080033f9 	.word	0x080033f9
 80036b8:	08003421 	.word	0x08003421

080036bc <stm32_timer_request>:
 80036bc:	460b      	mov	r3, r1
 80036be:	7a09      	ldrb	r1, [r1, #8]
 80036c0:	b5f0      	push	{r4, r5, r6, r7, lr}
 80036c2:	2908      	cmp	r1, #8
 80036c4:	d902      	bls.n	80036cc <stm32_timer_request+0x10>
 80036c6:	f06f 0006 	mvn.w	r0, #6
 80036ca:	e07b      	b.n	80037c4 <stm32_timer_request+0x108>
 80036cc:	685a      	ldr	r2, [r3, #4]
 80036ce:	f3c2 020e 	ubfx	r2, r2, #0, #15
 80036d2:	f5b2 7f80 	cmp.w	r2, #256	; 0x100
 80036d6:	d015      	beq.n	8003704 <stm32_timer_request+0x48>
 80036d8:	d807      	bhi.n	80036ea <stm32_timer_request+0x2e>
 80036da:	2a08      	cmp	r2, #8
 80036dc:	d00d      	beq.n	80036fa <stm32_timer_request+0x3e>
 80036de:	2a09      	cmp	r2, #9
 80036e0:	d16e      	bne.n	80037c0 <stm32_timer_request+0x104>
 80036e2:	e8bd 40f0 	ldmia.w	sp!, {r4, r5, r6, r7, lr}
 80036e6:	f7ff bf25 	b.w	8003534 <stm32_timer_close>
 80036ea:	f240 1001 	movw	r0, #257	; 0x101
 80036ee:	4282      	cmp	r2, r0
 80036f0:	d00e      	beq.n	8003710 <stm32_timer_request+0x54>
 80036f2:	f5b2 7f81 	cmp.w	r2, #258	; 0x102
 80036f6:	d010      	beq.n	800371a <stm32_timer_request+0x5e>
 80036f8:	e062      	b.n	80037c0 <stm32_timer_request+0x104>
 80036fa:	68da      	ldr	r2, [r3, #12]
 80036fc:	e8bd 40f0 	ldmia.w	sp!, {r4, r5, r6, r7, lr}
 8003700:	f7ff bebe 	b.w	8003480 <stm32_timer_open>
 8003704:	7b1a      	ldrb	r2, [r3, #12]
 8003706:	e8bd 40f0 	ldmia.w	sp!, {r4, r5, r6, r7, lr}
 800370a:	691b      	ldr	r3, [r3, #16]
 800370c:	f7ff bf3e 	b.w	800358c <stm32_timer_start>
 8003710:	4608      	mov	r0, r1
 8003712:	e8bd 40f0 	ldmia.w	sp!, {r4, r5, r6, r7, lr}
 8003716:	f7ff bf69 	b.w	80035ec <stm32_timer_stop>
 800371a:	68d8      	ldr	r0, [r3, #12]
 800371c:	691d      	ldr	r5, [r3, #16]
 800371e:	4b2c      	ldr	r3, [pc, #176]	; (80037d0 <stm32_timer_request+0x114>)
 8003720:	b2c2      	uxtb	r2, r0
 8003722:	f853 3021 	ldr.w	r3, [r3, r1, lsl #2]
 8003726:	0094      	lsls	r4, r2, #2
 8003728:	6a1e      	ldr	r6, [r3, #32]
 800372a:	210f      	movs	r1, #15
 800372c:	40a1      	lsls	r1, r4
 800372e:	2a01      	cmp	r2, #1
 8003730:	ea26 0101 	bic.w	r1, r6, r1
 8003734:	6219      	str	r1, [r3, #32]
 8003736:	bfc8      	it	gt
 8003738:	1e97      	subgt	r7, r2, #2
 800373a:	f04f 01ff 	mov.w	r1, #255	; 0xff
 800373e:	bfd5      	itete	le
 8003740:	699e      	ldrle	r6, [r3, #24]
 8003742:	69de      	ldrgt	r6, [r3, #28]
 8003744:	00d7      	lslle	r7, r2, #3
 8003746:	00ff      	lslgt	r7, r7, #3
 8003748:	bfd5      	itete	le
 800374a:	40b9      	lslle	r1, r7
 800374c:	40b9      	lslgt	r1, r7
 800374e:	ea26 0101 	bicle.w	r1, r6, r1
 8003752:	ea26 0101 	bicgt.w	r1, r6, r1
 8003756:	f3c0 2007 	ubfx	r0, r0, #8, #8
 800375a:	bfd4      	ite	le
 800375c:	6199      	strle	r1, [r3, #24]
 800375e:	61d9      	strgt	r1, [r3, #28]
 8003760:	2800      	cmp	r0, #0
 8003762:	d033      	beq.n	80037cc <stm32_timer_request+0x110>
 8003764:	1e41      	subs	r1, r0, #1
 8003766:	b2c9      	uxtb	r1, r1
 8003768:	2903      	cmp	r1, #3
 800376a:	bf9b      	ittet	ls
 800376c:	4819      	ldrls	r0, [pc, #100]	; (80037d4 <stm32_timer_request+0x118>)
 800376e:	4e1a      	ldrls	r6, [pc, #104]	; (80037d8 <stm32_timer_request+0x11c>)
 8003770:	2100      	movhi	r1, #0
 8003772:	5c40      	ldrbls	r0, [r0, r1]
 8003774:	bf8c      	ite	hi
 8003776:	4608      	movhi	r0, r1
 8003778:	5c71      	ldrbls	r1, [r6, r1]
 800377a:	2a03      	cmp	r2, #3
 800377c:	d80b      	bhi.n	8003796 <stm32_timer_request+0xda>
 800377e:	e8df f002 	tbb	[pc, r2]
 8003782:	0402      	.short	0x0402
 8003784:	0806      	.short	0x0806
 8003786:	635d      	str	r5, [r3, #52]	; 0x34
 8003788:	e007      	b.n	800379a <stm32_timer_request+0xde>
 800378a:	639d      	str	r5, [r3, #56]	; 0x38
 800378c:	e005      	b.n	800379a <stm32_timer_request+0xde>
 800378e:	63dd      	str	r5, [r3, #60]	; 0x3c
 8003790:	e009      	b.n	80037a6 <stm32_timer_request+0xea>
 8003792:	641d      	str	r5, [r3, #64]	; 0x40
 8003794:	e007      	b.n	80037a6 <stm32_timer_request+0xea>
 8003796:	2a01      	cmp	r2, #1
 8003798:	dc05      	bgt.n	80037a6 <stm32_timer_request+0xea>
 800379a:	699d      	ldr	r5, [r3, #24]
 800379c:	00d2      	lsls	r2, r2, #3
 800379e:	4090      	lsls	r0, r2
 80037a0:	4328      	orrs	r0, r5
 80037a2:	6198      	str	r0, [r3, #24]
 80037a4:	e005      	b.n	80037b2 <stm32_timer_request+0xf6>
 80037a6:	3a02      	subs	r2, #2
 80037a8:	69dd      	ldr	r5, [r3, #28]
 80037aa:	00d2      	lsls	r2, r2, #3
 80037ac:	4090      	lsls	r0, r2
 80037ae:	4328      	orrs	r0, r5
 80037b0:	61d8      	str	r0, [r3, #28]
 80037b2:	6a1a      	ldr	r2, [r3, #32]
 80037b4:	f041 0101 	orr.w	r1, r1, #1
 80037b8:	40a1      	lsls	r1, r4
 80037ba:	4311      	orrs	r1, r2
 80037bc:	6219      	str	r1, [r3, #32]
 80037be:	bdf0      	pop	{r4, r5, r6, r7, pc}
 80037c0:	f06f 0001 	mvn.w	r0, #1
 80037c4:	e8bd 40f0 	ldmia.w	sp!, {r4, r5, r6, r7, lr}
 80037c8:	f001 b9ed 	b.w	8004ba6 <error>
 80037cc:	bdf0      	pop	{r4, r5, r6, r7, pc}
 80037ce:	bf00      	nop
 80037d0:	08005c98 	.word	0x08005c98
 80037d4:	08005d04 	.word	0x08005d04
 80037d8:	08005d08 	.word	0x08005d08

080037dc <stm32_core_loop>:
 80037dc:	b510      	push	{r4, lr}
 80037de:	4604      	mov	r4, r0
 80037e0:	b086      	sub	sp, #24
 80037e2:	a801      	add	r0, sp, #4
 80037e4:	f001 f942 	bl	8004a6c <ipc_read>
 80037e8:	f8bd 300a 	ldrh.w	r3, [sp, #10]
 80037ec:	f3c3 030d 	ubfx	r3, r3, #0, #14
 80037f0:	3b01      	subs	r3, #1
 80037f2:	2b0b      	cmp	r3, #11
 80037f4:	d825      	bhi.n	8003842 <stm32_core_loop+0x66>
 80037f6:	e8df f003 	tbb	[pc, r3]
 80037fa:	240b      	.short	0x240b
 80037fc:	24241006 	.word	0x24241006
 8003800:	24241f15 	.word	0x24241f15
 8003804:	1a24      	.short	0x1a24
 8003806:	4620      	mov	r0, r4
 8003808:	a901      	add	r1, sp, #4
 800380a:	f7ff fd93 	bl	8003334 <stm32_power_request>
 800380e:	e01c      	b.n	800384a <stm32_core_loop+0x6e>
 8003810:	4620      	mov	r0, r4
 8003812:	a901      	add	r1, sp, #4
 8003814:	f7ff fb98 	bl	8002f48 <stm32_pin_request>
 8003818:	e017      	b.n	800384a <stm32_core_loop+0x6e>
 800381a:	4620      	mov	r0, r4
 800381c:	a901      	add	r1, sp, #4
 800381e:	f7ff ff4d 	bl	80036bc <stm32_timer_request>
 8003822:	e012      	b.n	800384a <stm32_core_loop+0x6e>
 8003824:	4620      	mov	r0, r4
 8003826:	a901      	add	r1, sp, #4
 8003828:	f000 f96a 	bl	8003b00 <stm32_uart_request>
 800382c:	e00d      	b.n	800384a <stm32_core_loop+0x6e>
 800382e:	4620      	mov	r0, r4
 8003830:	a901      	add	r1, sp, #4
 8003832:	f001 f835 	bl	80048a0 <stm32_spi_request>
 8003836:	e008      	b.n	800384a <stm32_core_loop+0x6e>
 8003838:	4620      	mov	r0, r4
 800383a:	a901      	add	r1, sp, #4
 800383c:	f000 fdfa 	bl	8004434 <stm32_usb_request>
 8003840:	e003      	b.n	800384a <stm32_core_loop+0x6e>
 8003842:	f06f 0001 	mvn.w	r0, #1
 8003846:	f001 f9ae 	bl	8004ba6 <error>
 800384a:	a801      	add	r0, sp, #4
 800384c:	f001 f8f5 	bl	8004a3a <ipc_write>
 8003850:	e7c7      	b.n	80037e2 <stm32_core_loop+0x6>

08003852 <stm32_core>:
 8003852:	b500      	push	{lr}
 8003854:	b095      	sub	sp, #84	; 0x54
 8003856:	f001 f996 	bl	8004b86 <process_get_current>
 800385a:	2101      	movs	r1, #1
 800385c:	4602      	mov	r2, r0
 800385e:	2300      	movs	r3, #0
 8003860:	2026      	movs	r0, #38	; 0x26
 8003862:	f7fc fd05 	bl	8000270 <svc_call>
 8003866:	4668      	mov	r0, sp
 8003868:	f7ff fd4a 	bl	8003300 <stm32_power_init>
 800386c:	4668      	mov	r0, sp
 800386e:	f7ff fee5 	bl	800363c <stm32_timer_init>
 8003872:	4668      	mov	r0, sp
 8003874:	f7ff fb64 	bl	8002f40 <stm32_pin_init>
 8003878:	4668      	mov	r0, sp
 800387a:	f000 fb1f 	bl	8003ebc <stm32_uart_init>
 800387e:	4668      	mov	r0, sp
 8003880:	f000 ff7c 	bl	800477c <stm32_spi_init>
 8003884:	4668      	mov	r0, sp
 8003886:	f000 fdc5 	bl	8004414 <stm32_usb_init>
 800388a:	4668      	mov	r0, sp
 800388c:	f7ff ffa6 	bl	80037dc <stm32_core_loop>

08003890 <stm32_uart_destroy>:
 8003890:	b538      	push	{r3, r4, r5, lr}
 8003892:	eb00 0481 	add.w	r4, r0, r1, lsl #2
 8003896:	6963      	ldr	r3, [r4, #20]
 8003898:	460d      	mov	r5, r1
 800389a:	6918      	ldr	r0, [r3, #16]
 800389c:	f001 fadd 	bl	8004e5a <stream_close>
 80038a0:	6963      	ldr	r3, [r4, #20]
 80038a2:	68d8      	ldr	r0, [r3, #12]
 80038a4:	f001 fb32 	bl	8004f0c <stream_destroy>
 80038a8:	6963      	ldr	r3, [r4, #20]
 80038aa:	6898      	ldr	r0, [r3, #8]
 80038ac:	f001 fad5 	bl	8004e5a <stream_close>
 80038b0:	6963      	ldr	r3, [r4, #20]
 80038b2:	6858      	ldr	r0, [r3, #4]
 80038b4:	f001 fb2a 	bl	8004f0c <stream_destroy>
 80038b8:	6960      	ldr	r0, [r4, #20]
 80038ba:	f001 f9dd 	bl	8004c78 <free>
 80038be:	2300      	movs	r3, #0
 80038c0:	6163      	str	r3, [r4, #20]
 80038c2:	480c      	ldr	r0, [pc, #48]	; (80038f4 <stm32_uart_destroy+0x64>)
 80038c4:	1e6b      	subs	r3, r5, #1
 80038c6:	2b03      	cmp	r3, #3
 80038c8:	4a0b      	ldr	r2, [pc, #44]	; (80038f8 <stm32_uart_destroy+0x68>)
 80038ca:	bf8c      	ite	hi
 80038cc:	f850 0025 	ldrhi.w	r0, [r0, r5, lsl #2]
 80038d0:	f850 0025 	ldrls.w	r0, [r0, r5, lsl #2]
 80038d4:	f04f 0301 	mov.w	r3, #1
 80038d8:	bf8b      	itete	hi
 80038da:	6a11      	ldrhi	r1, [r2, #32]
 80038dc:	6a51      	ldrls	r1, [r2, #36]	; 0x24
 80038de:	4083      	lslhi	r3, r0
 80038e0:	4083      	lslls	r3, r0
 80038e2:	bf8b      	itete	hi
 80038e4:	ea21 0303 	bichi.w	r3, r1, r3
 80038e8:	ea21 0303 	bicls.w	r3, r1, r3
 80038ec:	6213      	strhi	r3, [r2, #32]
 80038ee:	6253      	strls	r3, [r2, #36]	; 0x24
 80038f0:	bd38      	pop	{r3, r4, r5, pc}
 80038f2:	bf00      	nop
 80038f4:	08005d70 	.word	0x08005d70
 80038f8:	40023800 	.word	0x40023800

080038fc <stm32_uart_flush_internal>:
 80038fc:	b538      	push	{r3, r4, r5, lr}
 80038fe:	eb00 0481 	add.w	r4, r0, r1, lsl #2
 8003902:	6963      	ldr	r3, [r4, #20]
 8003904:	460d      	mov	r5, r1
 8003906:	6858      	ldr	r0, [r3, #4]
 8003908:	1c42      	adds	r2, r0, #1
 800390a:	d00f      	beq.n	800392c <stm32_uart_flush_internal+0x30>
 800390c:	f001 faf8 	bl	8004f00 <stream_flush>
 8003910:	6963      	ldr	r3, [r4, #20]
 8003912:	4629      	mov	r1, r5
 8003914:	6858      	ldr	r0, [r3, #4]
 8003916:	2207      	movs	r2, #7
 8003918:	f001 fabb 	bl	8004e92 <stream_listen>
 800391c:	6962      	ldr	r2, [r4, #20]
 800391e:	2300      	movs	r3, #0
 8003920:	8293      	strh	r3, [r2, #20]
 8003922:	b672      	cpsid	i
 8003924:	6962      	ldr	r2, [r4, #20]
 8003926:	8313      	strh	r3, [r2, #24]
 8003928:	82d3      	strh	r3, [r2, #22]
 800392a:	b662      	cpsie	i
 800392c:	6963      	ldr	r3, [r4, #20]
 800392e:	68d8      	ldr	r0, [r3, #12]
 8003930:	1c43      	adds	r3, r0, #1
 8003932:	d001      	beq.n	8003938 <stm32_uart_flush_internal+0x3c>
 8003934:	f001 fae4 	bl	8004f00 <stream_flush>
 8003938:	6963      	ldr	r3, [r4, #20]
 800393a:	2200      	movs	r2, #0
 800393c:	801a      	strh	r2, [r3, #0]
 800393e:	bd38      	pop	{r3, r4, r5, pc}

08003940 <stm32_uart_on_isr>:
 8003940:	2825      	cmp	r0, #37	; 0x25
 8003942:	b57f      	push	{r0, r1, r2, r3, r4, r5, r6, lr}
 8003944:	d006      	beq.n	8003954 <stm32_uart_on_isr+0x14>
 8003946:	2826      	cmp	r0, #38	; 0x26
 8003948:	d006      	beq.n	8003958 <stm32_uart_on_isr+0x18>
 800394a:	2827      	cmp	r0, #39	; 0x27
 800394c:	bf14      	ite	ne
 800394e:	2503      	movne	r5, #3
 8003950:	2502      	moveq	r5, #2
 8003952:	e002      	b.n	800395a <stm32_uart_on_isr+0x1a>
 8003954:	2500      	movs	r5, #0
 8003956:	e000      	b.n	800395a <stm32_uart_on_isr+0x1a>
 8003958:	2501      	movs	r5, #1
 800395a:	4b33      	ldr	r3, [pc, #204]	; (8003a28 <stm32_uart_on_isr+0xe8>)
 800395c:	f853 4025 	ldr.w	r4, [r3, r5, lsl #2]
 8003960:	6823      	ldr	r3, [r4, #0]
 8003962:	0718      	lsls	r0, r3, #28
 8003964:	d021      	beq.n	80039aa <stm32_uart_on_isr+0x6a>
 8003966:	071a      	lsls	r2, r3, #28
 8003968:	d505      	bpl.n	8003976 <stm32_uart_on_isr+0x36>
 800396a:	eb01 0285 	add.w	r2, r1, r5, lsl #2
 800396e:	6952      	ldr	r2, [r2, #20]
 8003970:	f64f 70f3 	movw	r0, #65523	; 0xfff3
 8003974:	e018      	b.n	80039a8 <stm32_uart_on_isr+0x68>
 8003976:	6862      	ldr	r2, [r4, #4]
 8003978:	079e      	lsls	r6, r3, #30
 800397a:	9203      	str	r2, [sp, #12]
 800397c:	d505      	bpl.n	800398a <stm32_uart_on_isr+0x4a>
 800397e:	eb01 0285 	add.w	r2, r1, r5, lsl #2
 8003982:	6952      	ldr	r2, [r2, #20]
 8003984:	f64f 60d3 	movw	r0, #65235	; 0xfed3
 8003988:	e00e      	b.n	80039a8 <stm32_uart_on_isr+0x68>
 800398a:	07d8      	lsls	r0, r3, #31
 800398c:	d505      	bpl.n	800399a <stm32_uart_on_isr+0x5a>
 800398e:	eb01 0285 	add.w	r2, r1, r5, lsl #2
 8003992:	6952      	ldr	r2, [r2, #20]
 8003994:	f64f 60cd 	movw	r0, #65229	; 0xfecd
 8003998:	e006      	b.n	80039a8 <stm32_uart_on_isr+0x68>
 800399a:	075a      	lsls	r2, r3, #29
 800399c:	d505      	bpl.n	80039aa <stm32_uart_on_isr+0x6a>
 800399e:	f64f 60ce 	movw	r0, #65230	; 0xfece
 80039a2:	eb01 0285 	add.w	r2, r1, r5, lsl #2
 80039a6:	6952      	ldr	r2, [r2, #20]
 80039a8:	8010      	strh	r0, [r2, #0]
 80039aa:	68e2      	ldr	r2, [r4, #12]
 80039ac:	0616      	lsls	r6, r2, #24
 80039ae:	d521      	bpl.n	80039f4 <stm32_uart_on_isr+0xb4>
 80039b0:	0618      	lsls	r0, r3, #24
 80039b2:	d51f      	bpl.n	80039f4 <stm32_uart_on_isr+0xb4>
 80039b4:	eb01 0185 	add.w	r1, r1, r5, lsl #2
 80039b8:	694a      	ldr	r2, [r1, #20]
 80039ba:	8b10      	ldrh	r0, [r2, #24]
 80039bc:	b190      	cbz	r0, 80039e4 <stm32_uart_on_isr+0xa4>
 80039be:	8ad1      	ldrh	r1, [r2, #22]
 80039c0:	1c4b      	adds	r3, r1, #1
 80039c2:	4411      	add	r1, r2
 80039c4:	b29b      	uxth	r3, r3
 80039c6:	7f09      	ldrb	r1, [r1, #28]
 80039c8:	4283      	cmp	r3, r0
 80039ca:	82d3      	strh	r3, [r2, #22]
 80039cc:	6061      	str	r1, [r4, #4]
 80039ce:	d311      	bcc.n	80039f4 <stm32_uart_on_isr+0xb4>
 80039d0:	2600      	movs	r6, #0
 80039d2:	8316      	strh	r6, [r2, #24]
 80039d4:	f001 f8ec 	bl	8004bb0 <process_iget_current>
 80039d8:	9600      	str	r6, [sp, #0]
 80039da:	4914      	ldr	r1, [pc, #80]	; (8003a2c <stm32_uart_on_isr+0xec>)
 80039dc:	462a      	mov	r2, r5
 80039de:	4633      	mov	r3, r6
 80039e0:	f001 f81e 	bl	8004a20 <ipc_ipost_inline>
 80039e4:	68e3      	ldr	r3, [r4, #12]
 80039e6:	f023 0380 	bic.w	r3, r3, #128	; 0x80
 80039ea:	60e3      	str	r3, [r4, #12]
 80039ec:	68e3      	ldr	r3, [r4, #12]
 80039ee:	f043 0340 	orr.w	r3, r3, #64	; 0x40
 80039f2:	60e3      	str	r3, [r4, #12]
 80039f4:	68e3      	ldr	r3, [r4, #12]
 80039f6:	0659      	lsls	r1, r3, #25
 80039f8:	d506      	bpl.n	8003a08 <stm32_uart_on_isr+0xc8>
 80039fa:	6823      	ldr	r3, [r4, #0]
 80039fc:	065a      	lsls	r2, r3, #25
 80039fe:	bf42      	ittt	mi
 8003a00:	68e3      	ldrmi	r3, [r4, #12]
 8003a02:	f023 0348 	bicmi.w	r3, r3, #72	; 0x48
 8003a06:	60e3      	strmi	r3, [r4, #12]
 8003a08:	6823      	ldr	r3, [r4, #0]
 8003a0a:	069b      	lsls	r3, r3, #26
 8003a0c:	d509      	bpl.n	8003a22 <stm32_uart_on_isr+0xe2>
 8003a0e:	6864      	ldr	r4, [r4, #4]
 8003a10:	f001 f8ce 	bl	8004bb0 <process_iget_current>
 8003a14:	b2e4      	uxtb	r4, r4
 8003a16:	9400      	str	r4, [sp, #0]
 8003a18:	4905      	ldr	r1, [pc, #20]	; (8003a30 <stm32_uart_on_isr+0xf0>)
 8003a1a:	462a      	mov	r2, r5
 8003a1c:	2300      	movs	r3, #0
 8003a1e:	f000 ffff 	bl	8004a20 <ipc_ipost_inline>
 8003a22:	b004      	add	sp, #16
 8003a24:	bd70      	pop	{r4, r5, r6, pc}
 8003a26:	bf00      	nop
 8003a28:	08005d7c 	.word	0x08005d7c
 8003a2c:	00070105 	.word	0x00070105
 8003a30:	00070106 	.word	0x00070106

08003a34 <uart_write_kernel>:
 8003a34:	4b15      	ldr	r3, [pc, #84]	; (8003a8c <uart_write_kernel+0x58>)
 8003a36:	b2d2      	uxtb	r2, r2
 8003a38:	f853 3022 	ldr.w	r3, [r3, r2, lsl #2]
 8003a3c:	b530      	push	{r4, r5, lr}
 8003a3e:	f003 051f 	and.w	r5, r3, #31
 8003a42:	f343 03c4 	sbfx	r3, r3, #3, #5
 8003a46:	2401      	movs	r4, #1
 8003a48:	f023 4360 	bic.w	r3, r3, #3758096384	; 0xe0000000
 8003a4c:	40ac      	lsls	r4, r5
 8003a4e:	f023 0303 	bic.w	r3, r3, #3
 8003a52:	4d0f      	ldr	r5, [pc, #60]	; (8003a90 <uart_write_kernel+0x5c>)
 8003a54:	f103 4360 	add.w	r3, r3, #3758096384	; 0xe0000000
 8003a58:	f855 2022 	ldr.w	r2, [r5, r2, lsl #2]
 8003a5c:	f503 4361 	add.w	r3, r3, #57600	; 0xe100
 8003a60:	f8c3 4080 	str.w	r4, [r3, #128]	; 0x80
 8003a64:	68d5      	ldr	r5, [r2, #12]
 8003a66:	4401      	add	r1, r0
 8003a68:	f045 0508 	orr.w	r5, r5, #8
 8003a6c:	60d5      	str	r5, [r2, #12]
 8003a6e:	4288      	cmp	r0, r1
 8003a70:	d006      	beq.n	8003a80 <uart_write_kernel+0x4c>
 8003a72:	6815      	ldr	r5, [r2, #0]
 8003a74:	062d      	lsls	r5, r5, #24
 8003a76:	d5fc      	bpl.n	8003a72 <uart_write_kernel+0x3e>
 8003a78:	f810 5b01 	ldrb.w	r5, [r0], #1
 8003a7c:	6055      	str	r5, [r2, #4]
 8003a7e:	e7f6      	b.n	8003a6e <uart_write_kernel+0x3a>
 8003a80:	68d1      	ldr	r1, [r2, #12]
 8003a82:	f041 0140 	orr.w	r1, r1, #64	; 0x40
 8003a86:	60d1      	str	r1, [r2, #12]
 8003a88:	601c      	str	r4, [r3, #0]
 8003a8a:	bd30      	pop	{r4, r5, pc}
 8003a8c:	08005d64 	.word	0x08005d64
 8003a90:	08005d7c 	.word	0x08005d7c

08003a94 <stm32_uart_write>:
 8003a94:	b570      	push	{r4, r5, r6, lr}
 8003a96:	460e      	mov	r6, r1
 8003a98:	b11a      	cbz	r2, 8003aa2 <stm32_uart_write+0xe>
 8003a9a:	eb00 0381 	add.w	r3, r0, r1, lsl #2
 8003a9e:	695b      	ldr	r3, [r3, #20]
 8003aa0:	829a      	strh	r2, [r3, #20]
 8003aa2:	eb00 0586 	add.w	r5, r0, r6, lsl #2
 8003aa6:	696c      	ldr	r4, [r5, #20]
 8003aa8:	8aa3      	ldrh	r3, [r4, #20]
 8003aaa:	b91b      	cbnz	r3, 8003ab4 <stm32_uart_write+0x20>
 8003aac:	6860      	ldr	r0, [r4, #4]
 8003aae:	f001 f9da 	bl	8004e66 <stream_get_size>
 8003ab2:	82a0      	strh	r0, [r4, #20]
 8003ab4:	6969      	ldr	r1, [r5, #20]
 8003ab6:	8a8c      	ldrh	r4, [r1, #20]
 8003ab8:	b1c4      	cbz	r4, 8003aec <stm32_uart_write+0x58>
 8003aba:	2c10      	cmp	r4, #16
 8003abc:	bf28      	it	cs
 8003abe:	2410      	movcs	r4, #16
 8003ac0:	6888      	ldr	r0, [r1, #8]
 8003ac2:	4622      	mov	r2, r4
 8003ac4:	311c      	adds	r1, #28
 8003ac6:	f001 fa08 	bl	8004eda <stream_read>
 8003aca:	b1b0      	cbz	r0, 8003afa <stm32_uart_write+0x66>
 8003acc:	696b      	ldr	r3, [r5, #20]
 8003ace:	2200      	movs	r2, #0
 8003ad0:	82da      	strh	r2, [r3, #22]
 8003ad2:	8a9a      	ldrh	r2, [r3, #20]
 8003ad4:	b2a4      	uxth	r4, r4
 8003ad6:	831c      	strh	r4, [r3, #24]
 8003ad8:	1b14      	subs	r4, r2, r4
 8003ada:	829c      	strh	r4, [r3, #20]
 8003adc:	4b07      	ldr	r3, [pc, #28]	; (8003afc <stm32_uart_write+0x68>)
 8003ade:	f853 2026 	ldr.w	r2, [r3, r6, lsl #2]
 8003ae2:	68d3      	ldr	r3, [r2, #12]
 8003ae4:	f043 0388 	orr.w	r3, r3, #136	; 0x88
 8003ae8:	60d3      	str	r3, [r2, #12]
 8003aea:	bd70      	pop	{r4, r5, r6, pc}
 8003aec:	6848      	ldr	r0, [r1, #4]
 8003aee:	2207      	movs	r2, #7
 8003af0:	4631      	mov	r1, r6
 8003af2:	e8bd 4070 	ldmia.w	sp!, {r4, r5, r6, lr}
 8003af6:	f001 b9cc 	b.w	8004e92 <stream_listen>
 8003afa:	bd70      	pop	{r4, r5, r6, pc}
 8003afc:	08005d7c 	.word	0x08005d7c

08003b00 <stm32_uart_request>:
 8003b00:	e92d 43f0 	stmdb	sp!, {r4, r5, r6, r7, r8, r9, lr}
 8003b04:	7a0c      	ldrb	r4, [r1, #8]
 8003b06:	b089      	sub	sp, #36	; 0x24
 8003b08:	2c02      	cmp	r4, #2
 8003b0a:	4606      	mov	r6, r0
 8003b0c:	460d      	mov	r5, r1
 8003b0e:	d902      	bls.n	8003b16 <stm32_uart_request+0x16>
 8003b10:	f06f 0006 	mvn.w	r0, #6
 8003b14:	e03f      	b.n	8003b96 <stm32_uart_request+0x96>
 8003b16:	684b      	ldr	r3, [r1, #4]
 8003b18:	f3c3 030e 	ubfx	r3, r3, #0, #15
 8003b1c:	2b0b      	cmp	r3, #11
 8003b1e:	f000 8134 	beq.w	8003d8a <stm32_uart_request+0x28a>
 8003b22:	d810      	bhi.n	8003b46 <stm32_uart_request+0x46>
 8003b24:	2b08      	cmp	r3, #8
 8003b26:	d02d      	beq.n	8003b84 <stm32_uart_request+0x84>
 8003b28:	d806      	bhi.n	8003b38 <stm32_uart_request+0x38>
 8003b2a:	2b01      	cmp	r3, #1
 8003b2c:	f000 815d 	beq.w	8003dea <stm32_uart_request+0x2ea>
 8003b30:	2b06      	cmp	r3, #6
 8003b32:	f000 8121 	beq.w	8003d78 <stm32_uart_request+0x278>
 8003b36:	e178      	b.n	8003e2a <stm32_uart_request+0x32a>
 8003b38:	2b09      	cmp	r3, #9
 8003b3a:	f000 808c 	beq.w	8003c56 <stm32_uart_request+0x156>
 8003b3e:	2b0a      	cmp	r3, #10
 8003b40:	f000 8129 	beq.w	8003d96 <stm32_uart_request+0x296>
 8003b44:	e171      	b.n	8003e2a <stm32_uart_request+0x32a>
 8003b46:	f240 1203 	movw	r2, #259	; 0x103
 8003b4a:	4293      	cmp	r3, r2
 8003b4c:	f000 813d 	beq.w	8003dca <stm32_uart_request+0x2ca>
 8003b50:	f5b3 7f82 	cmp.w	r3, #260	; 0x104
 8003b54:	d208      	bcs.n	8003b68 <stm32_uart_request+0x68>
 8003b56:	f5b3 7f80 	cmp.w	r3, #256	; 0x100
 8003b5a:	f000 809e 	beq.w	8003c9a <stm32_uart_request+0x19a>
 8003b5e:	f5b3 7f81 	cmp.w	r3, #258	; 0x102
 8003b62:	f000 8126 	beq.w	8003db2 <stm32_uart_request+0x2b2>
 8003b66:	e160      	b.n	8003e2a <stm32_uart_request+0x32a>
 8003b68:	f240 1205 	movw	r2, #261	; 0x105
 8003b6c:	4293      	cmp	r3, r2
 8003b6e:	f000 813c 	beq.w	8003dea <stm32_uart_request+0x2ea>
 8003b72:	f5b3 7f82 	cmp.w	r3, #260	; 0x104
 8003b76:	f240 8131 	bls.w	8003ddc <stm32_uart_request+0x2dc>
 8003b7a:	f5b3 7f83 	cmp.w	r3, #262	; 0x106
 8003b7e:	f000 813a 	beq.w	8003df6 <stm32_uart_request+0x2f6>
 8003b82:	e152      	b.n	8003e2a <stm32_uart_request+0x32a>
 8003b84:	eb00 0984 	add.w	r9, r0, r4, lsl #2
 8003b88:	f8d9 7014 	ldr.w	r7, [r9, #20]
 8003b8c:	f8d1 800c 	ldr.w	r8, [r1, #12]
 8003b90:	b127      	cbz	r7, 8003b9c <stm32_uart_request+0x9c>
 8003b92:	f06f 0005 	mvn.w	r0, #5
 8003b96:	f001 f806 	bl	8004ba6 <error>
 8003b9a:	e184      	b.n	8003ea6 <stm32_uart_request+0x3a6>
 8003b9c:	202c      	movs	r0, #44	; 0x2c
 8003b9e:	f001 f84e 	bl	8004c3e <malloc>
 8003ba2:	4605      	mov	r5, r0
 8003ba4:	f8c9 0014 	str.w	r0, [r9, #20]
 8003ba8:	2800      	cmp	r0, #0
 8003baa:	f000 817c 	beq.w	8003ea6 <stm32_uart_request+0x3a6>
 8003bae:	8007      	strh	r7, [r0, #0]
 8003bb0:	1e63      	subs	r3, r4, #1
 8003bb2:	489f      	ldr	r0, [pc, #636]	; (8003e30 <stm32_uart_request+0x330>)
 8003bb4:	2b03      	cmp	r3, #3
 8003bb6:	4a9f      	ldr	r2, [pc, #636]	; (8003e34 <stm32_uart_request+0x334>)
 8003bb8:	bf8b      	itete	hi
 8003bba:	f850 0024 	ldrhi.w	r0, [r0, r4, lsl #2]
 8003bbe:	f850 0024 	ldrls.w	r0, [r0, r4, lsl #2]
 8003bc2:	6a11      	ldrhi	r1, [r2, #32]
 8003bc4:	6a51      	ldrls	r1, [r2, #36]	; 0x24
 8003bc6:	f04f 0301 	mov.w	r3, #1
 8003bca:	bf8b      	itete	hi
 8003bcc:	4083      	lslhi	r3, r0
 8003bce:	4083      	lslls	r3, r0
 8003bd0:	430b      	orrhi	r3, r1
 8003bd2:	430b      	orrls	r3, r1
 8003bd4:	bf8c      	ite	hi
 8003bd6:	6213      	strhi	r3, [r2, #32]
 8003bd8:	6253      	strls	r3, [r2, #36]	; 0x24
 8003bda:	4b97      	ldr	r3, [pc, #604]	; (8003e38 <stm32_uart_request+0x338>)
 8003bdc:	f04f 32ff 	mov.w	r2, #4294967295
 8003be0:	f853 7024 	ldr.w	r7, [r3, r4, lsl #2]
 8003be4:	f018 0f02 	tst.w	r8, #2
 8003be8:	f04f 0300 	mov.w	r3, #0
 8003bec:	60fb      	str	r3, [r7, #12]
 8003bee:	606a      	str	r2, [r5, #4]
 8003bf0:	60aa      	str	r2, [r5, #8]
 8003bf2:	60ea      	str	r2, [r5, #12]
 8003bf4:	612a      	str	r2, [r5, #16]
 8003bf6:	82ab      	strh	r3, [r5, #20]
 8003bf8:	832b      	strh	r3, [r5, #24]
 8003bfa:	82eb      	strh	r3, [r5, #22]
 8003bfc:	d011      	beq.n	8003c22 <stm32_uart_request+0x122>
 8003bfe:	2020      	movs	r0, #32
 8003c00:	f001 f911 	bl	8004e26 <stream_create>
 8003c04:	1c43      	adds	r3, r0, #1
 8003c06:	6068      	str	r0, [r5, #4]
 8003c08:	f000 8149 	beq.w	8003e9e <stm32_uart_request+0x39e>
 8003c0c:	f001 f918 	bl	8004e40 <stream_open>
 8003c10:	60a8      	str	r0, [r5, #8]
 8003c12:	3001      	adds	r0, #1
 8003c14:	f000 8143 	beq.w	8003e9e <stm32_uart_request+0x39e>
 8003c18:	6868      	ldr	r0, [r5, #4]
 8003c1a:	4621      	mov	r1, r4
 8003c1c:	2207      	movs	r2, #7
 8003c1e:	f001 f938 	bl	8004e92 <stream_listen>
 8003c22:	f018 0f01 	tst.w	r8, #1
 8003c26:	f000 8113 	beq.w	8003e50 <stm32_uart_request+0x350>
 8003c2a:	2020      	movs	r0, #32
 8003c2c:	f001 f8fb 	bl	8004e26 <stream_create>
 8003c30:	1c43      	adds	r3, r0, #1
 8003c32:	60e8      	str	r0, [r5, #12]
 8003c34:	f000 8133 	beq.w	8003e9e <stm32_uart_request+0x39e>
 8003c38:	f001 f902 	bl	8004e40 <stream_open>
 8003c3c:	6128      	str	r0, [r5, #16]
 8003c3e:	3001      	adds	r0, #1
 8003c40:	f000 812d 	beq.w	8003e9e <stm32_uart_request+0x39e>
 8003c44:	68e8      	ldr	r0, [r5, #12]
 8003c46:	f001 f919 	bl	8004e7c <stream_get_free>
 8003c4a:	68fb      	ldr	r3, [r7, #12]
 8003c4c:	8368      	strh	r0, [r5, #26]
 8003c4e:	f043 0324 	orr.w	r3, r3, #36	; 0x24
 8003c52:	60fb      	str	r3, [r7, #12]
 8003c54:	e0fc      	b.n	8003e50 <stm32_uart_request+0x350>
 8003c56:	eb00 0384 	add.w	r3, r0, r4, lsl #2
 8003c5a:	695b      	ldr	r3, [r3, #20]
 8003c5c:	b30b      	cbz	r3, 8003ca2 <stm32_uart_request+0x1a2>
 8003c5e:	4b77      	ldr	r3, [pc, #476]	; (8003e3c <stm32_uart_request+0x33c>)
 8003c60:	2201      	movs	r2, #1
 8003c62:	f853 1024 	ldr.w	r1, [r3, r4, lsl #2]
 8003c66:	f001 001f 	and.w	r0, r1, #31
 8003c6a:	b24b      	sxtb	r3, r1
 8003c6c:	4082      	lsls	r2, r0
 8003c6e:	095b      	lsrs	r3, r3, #5
 8003c70:	4873      	ldr	r0, [pc, #460]	; (8003e40 <stm32_uart_request+0x340>)
 8003c72:	3320      	adds	r3, #32
 8003c74:	f840 2023 	str.w	r2, [r0, r3, lsl #2]
 8003c78:	2200      	movs	r2, #0
 8003c7a:	4613      	mov	r3, r2
 8003c7c:	200b      	movs	r0, #11
 8003c7e:	f7fc faf7 	bl	8000270 <svc_call>
 8003c82:	4b6d      	ldr	r3, [pc, #436]	; (8003e38 <stm32_uart_request+0x338>)
 8003c84:	4630      	mov	r0, r6
 8003c86:	f853 2024 	ldr.w	r2, [r3, r4, lsl #2]
 8003c8a:	4621      	mov	r1, r4
 8003c8c:	68d3      	ldr	r3, [r2, #12]
 8003c8e:	f423 5300 	bic.w	r3, r3, #8192	; 0x2000
 8003c92:	60d3      	str	r3, [r2, #12]
 8003c94:	f7ff fe32 	bl	80038fc <stm32_uart_flush_internal>
 8003c98:	e101      	b.n	8003e9e <stm32_uart_request+0x39e>
 8003c9a:	eb00 0384 	add.w	r3, r0, r4, lsl #2
 8003c9e:	695b      	ldr	r3, [r3, #20]
 8003ca0:	b913      	cbnz	r3, 8003ca8 <stm32_uart_request+0x1a8>
 8003ca2:	f06f 0004 	mvn.w	r0, #4
 8003ca6:	e776      	b.n	8003b96 <stm32_uart_request+0x96>
 8003ca8:	4608      	mov	r0, r1
 8003caa:	a901      	add	r1, sp, #4
 8003cac:	f001 f84a 	bl	8004d44 <uart_decode_baudrate>
 8003cb0:	4b61      	ldr	r3, [pc, #388]	; (8003e38 <stm32_uart_request+0x338>)
 8003cb2:	f853 5024 	ldr.w	r5, [r3, r4, lsl #2]
 8003cb6:	68eb      	ldr	r3, [r5, #12]
 8003cb8:	f423 5300 	bic.w	r3, r3, #8192	; 0x2000
 8003cbc:	60eb      	str	r3, [r5, #12]
 8003cbe:	f89d 3008 	ldrb.w	r3, [sp, #8]
 8003cc2:	68ea      	ldr	r2, [r5, #12]
 8003cc4:	2b08      	cmp	r3, #8
 8003cc6:	f89d 3009 	ldrb.w	r3, [sp, #9]
 8003cca:	d104      	bne.n	8003cd6 <stm32_uart_request+0x1d6>
 8003ccc:	2b4e      	cmp	r3, #78	; 0x4e
 8003cce:	d002      	beq.n	8003cd6 <stm32_uart_request+0x1d6>
 8003cd0:	f442 5280 	orr.w	r2, r2, #4096	; 0x1000
 8003cd4:	e001      	b.n	8003cda <stm32_uart_request+0x1da>
 8003cd6:	f422 5280 	bic.w	r2, r2, #4096	; 0x1000
 8003cda:	2b4e      	cmp	r3, #78	; 0x4e
 8003cdc:	60ea      	str	r2, [r5, #12]
 8003cde:	d00b      	beq.n	8003cf8 <stm32_uart_request+0x1f8>
 8003ce0:	68ea      	ldr	r2, [r5, #12]
 8003ce2:	2b4f      	cmp	r3, #79	; 0x4f
 8003ce4:	f442 6280 	orr.w	r2, r2, #1024	; 0x400
 8003ce8:	60ea      	str	r2, [r5, #12]
 8003cea:	68eb      	ldr	r3, [r5, #12]
 8003cec:	bf0c      	ite	eq
 8003cee:	f443 7300 	orreq.w	r3, r3, #512	; 0x200
 8003cf2:	f423 7300 	bicne.w	r3, r3, #512	; 0x200
 8003cf6:	e002      	b.n	8003cfe <stm32_uart_request+0x1fe>
 8003cf8:	68eb      	ldr	r3, [r5, #12]
 8003cfa:	f423 6380 	bic.w	r3, r3, #1024	; 0x400
 8003cfe:	60eb      	str	r3, [r5, #12]
 8003d00:	f89d 300a 	ldrb.w	r3, [sp, #10]
 8003d04:	3c01      	subs	r4, #1
 8003d06:	3b02      	subs	r3, #2
 8003d08:	b2db      	uxtb	r3, r3
 8003d0a:	2b0d      	cmp	r3, #13
 8003d0c:	bf96      	itet	ls
 8003d0e:	4a4d      	ldrls	r2, [pc, #308]	; (8003e44 <stm32_uart_request+0x344>)
 8003d10:	2100      	movhi	r1, #0
 8003d12:	5cd1      	ldrbls	r1, [r2, r3]
 8003d14:	692a      	ldr	r2, [r5, #16]
 8003d16:	2c03      	cmp	r4, #3
 8003d18:	f422 5240 	bic.w	r2, r2, #12288	; 0x3000
 8003d1c:	612a      	str	r2, [r5, #16]
 8003d1e:	692b      	ldr	r3, [r5, #16]
 8003d20:	4630      	mov	r0, r6
 8003d22:	ea43 3301 	orr.w	r3, r3, r1, lsl #12
 8003d26:	612b      	str	r3, [r5, #16]
 8003d28:	4b47      	ldr	r3, [pc, #284]	; (8003e48 <stm32_uart_request+0x348>)
 8003d2a:	a903      	add	r1, sp, #12
 8003d2c:	9304      	str	r3, [sp, #16]
 8003d2e:	bf8c      	ite	hi
 8003d30:	2303      	movhi	r3, #3
 8003d32:	2302      	movls	r3, #2
 8003d34:	9305      	str	r3, [sp, #20]
 8003d36:	f7ff fafd 	bl	8003334 <stm32_power_request>
 8003d3a:	9a06      	ldr	r2, [sp, #24]
 8003d3c:	2319      	movs	r3, #25
 8003d3e:	fb03 f102 	mul.w	r1, r3, r2
 8003d42:	9b01      	ldr	r3, [sp, #4]
 8003d44:	009b      	lsls	r3, r3, #2
 8003d46:	fbb1 f2f3 	udiv	r2, r1, r3
 8003d4a:	2364      	movs	r3, #100	; 0x64
 8003d4c:	fbb2 f1f3 	udiv	r1, r2, r3
 8003d50:	fb03 2311 	mls	r3, r3, r1, r2
 8003d54:	00db      	lsls	r3, r3, #3
 8003d56:	f103 0219 	add.w	r2, r3, #25
 8003d5a:	2332      	movs	r3, #50	; 0x32
 8003d5c:	fbb2 f3f3 	udiv	r3, r2, r3
 8003d60:	ea43 1301 	orr.w	r3, r3, r1, lsl #4
 8003d64:	60ab      	str	r3, [r5, #8]
 8003d66:	68eb      	ldr	r3, [r5, #12]
 8003d68:	f443 5304 	orr.w	r3, r3, #8448	; 0x2100
 8003d6c:	60eb      	str	r3, [r5, #12]
 8003d6e:	696b      	ldr	r3, [r5, #20]
 8003d70:	f043 0301 	orr.w	r3, r3, #1
 8003d74:	616b      	str	r3, [r5, #20]
 8003d76:	e096      	b.n	8003ea6 <stm32_uart_request+0x3a6>
 8003d78:	eb00 0684 	add.w	r6, r0, r4, lsl #2
 8003d7c:	6973      	ldr	r3, [r6, #20]
 8003d7e:	2b00      	cmp	r3, #0
 8003d80:	d08f      	beq.n	8003ca2 <stm32_uart_request+0x1a2>
 8003d82:	4621      	mov	r1, r4
 8003d84:	f7ff fdba 	bl	80038fc <stm32_uart_flush_internal>
 8003d88:	e08d      	b.n	8003ea6 <stm32_uart_request+0x3a6>
 8003d8a:	eb00 0484 	add.w	r4, r0, r4, lsl #2
 8003d8e:	6963      	ldr	r3, [r4, #20]
 8003d90:	b12b      	cbz	r3, 8003d9e <stm32_uart_request+0x29e>
 8003d92:	685b      	ldr	r3, [r3, #4]
 8003d94:	e00b      	b.n	8003dae <stm32_uart_request+0x2ae>
 8003d96:	eb00 0484 	add.w	r4, r0, r4, lsl #2
 8003d9a:	6963      	ldr	r3, [r4, #20]
 8003d9c:	b933      	cbnz	r3, 8003dac <stm32_uart_request+0x2ac>
 8003d9e:	f06f 0004 	mvn.w	r0, #4
 8003da2:	f000 ff00 	bl	8004ba6 <error>
 8003da6:	f04f 33ff 	mov.w	r3, #4294967295
 8003daa:	e000      	b.n	8003dae <stm32_uart_request+0x2ae>
 8003dac:	68db      	ldr	r3, [r3, #12]
 8003dae:	60eb      	str	r3, [r5, #12]
 8003db0:	e079      	b.n	8003ea6 <stm32_uart_request+0x3a6>
 8003db2:	eb00 0484 	add.w	r4, r0, r4, lsl #2
 8003db6:	6964      	ldr	r4, [r4, #20]
 8003db8:	b924      	cbnz	r4, 8003dc4 <stm32_uart_request+0x2c4>
 8003dba:	f06f 0004 	mvn.w	r0, #4
 8003dbe:	f000 fef2 	bl	8004ba6 <error>
 8003dc2:	e000      	b.n	8003dc6 <stm32_uart_request+0x2c6>
 8003dc4:	8824      	ldrh	r4, [r4, #0]
 8003dc6:	60ec      	str	r4, [r5, #12]
 8003dc8:	e06d      	b.n	8003ea6 <stm32_uart_request+0x3a6>
 8003dca:	eb00 0484 	add.w	r4, r0, r4, lsl #2
 8003dce:	6963      	ldr	r3, [r4, #20]
 8003dd0:	2b00      	cmp	r3, #0
 8003dd2:	f43f af66 	beq.w	8003ca2 <stm32_uart_request+0x1a2>
 8003dd6:	2200      	movs	r2, #0
 8003dd8:	801a      	strh	r2, [r3, #0]
 8003dda:	e064      	b.n	8003ea6 <stm32_uart_request+0x3a6>
 8003ddc:	202d      	movs	r0, #45	; 0x2d
 8003dde:	491b      	ldr	r1, [pc, #108]	; (8003e4c <stm32_uart_request+0x34c>)
 8003de0:	4622      	mov	r2, r4
 8003de2:	2300      	movs	r3, #0
 8003de4:	f7fc fa44 	bl	8000270 <svc_call>
 8003de8:	e05d      	b.n	8003ea6 <stm32_uart_request+0x3a6>
 8003dea:	4630      	mov	r0, r6
 8003dec:	4621      	mov	r1, r4
 8003dee:	692a      	ldr	r2, [r5, #16]
 8003df0:	f7ff fe50 	bl	8003a94 <stm32_uart_write>
 8003df4:	e057      	b.n	8003ea6 <stm32_uart_request+0x3a6>
 8003df6:	690b      	ldr	r3, [r1, #16]
 8003df8:	eb00 0484 	add.w	r4, r0, r4, lsl #2
 8003dfc:	6965      	ldr	r5, [r4, #20]
 8003dfe:	f88d 300c 	strb.w	r3, [sp, #12]
 8003e02:	8b6b      	ldrh	r3, [r5, #26]
 8003e04:	b91b      	cbnz	r3, 8003e0e <stm32_uart_request+0x30e>
 8003e06:	68e8      	ldr	r0, [r5, #12]
 8003e08:	f001 f838 	bl	8004e7c <stream_get_free>
 8003e0c:	8368      	strh	r0, [r5, #26]
 8003e0e:	6963      	ldr	r3, [r4, #20]
 8003e10:	8b5a      	ldrh	r2, [r3, #26]
 8003e12:	2a00      	cmp	r2, #0
 8003e14:	d047      	beq.n	8003ea6 <stm32_uart_request+0x3a6>
 8003e16:	6918      	ldr	r0, [r3, #16]
 8003e18:	2201      	movs	r2, #1
 8003e1a:	a903      	add	r1, sp, #12
 8003e1c:	f001 f84a 	bl	8004eb4 <stream_write>
 8003e20:	6962      	ldr	r2, [r4, #20]
 8003e22:	8b53      	ldrh	r3, [r2, #26]
 8003e24:	3b01      	subs	r3, #1
 8003e26:	8353      	strh	r3, [r2, #26]
 8003e28:	e03d      	b.n	8003ea6 <stm32_uart_request+0x3a6>
 8003e2a:	f06f 0001 	mvn.w	r0, #1
 8003e2e:	e6b2      	b.n	8003b96 <stm32_uart_request+0x96>
 8003e30:	08005d70 	.word	0x08005d70
 8003e34:	40023800 	.word	0x40023800
 8003e38:	08005d7c 	.word	0x08005d7c
 8003e3c:	08005d64 	.word	0x08005d64
 8003e40:	e000e100 	.word	0xe000e100
 8003e44:	08005d56 	.word	0x08005d56
 8003e48:	00038101 	.word	0x00038101
 8003e4c:	08003a35 	.word	0x08003a35
 8003e50:	68fb      	ldr	r3, [r7, #12]
 8003e52:	200a      	movs	r0, #10
 8003e54:	f443 5300 	orr.w	r3, r3, #8192	; 0x2000
 8003e58:	60fb      	str	r3, [r7, #12]
 8003e5a:	4b14      	ldr	r3, [pc, #80]	; (8003eac <stm32_uart_request+0x3ac>)
 8003e5c:	4a14      	ldr	r2, [pc, #80]	; (8003eb0 <stm32_uart_request+0x3b0>)
 8003e5e:	f853 4024 	ldr.w	r4, [r3, r4, lsl #2]
 8003e62:	4633      	mov	r3, r6
 8003e64:	4621      	mov	r1, r4
 8003e66:	f7fc fa03 	bl	8000270 <svc_call>
 8003e6a:	b2e1      	uxtb	r1, r4
 8003e6c:	f001 001f 	and.w	r0, r1, #31
 8003e70:	2201      	movs	r2, #1
 8003e72:	b24b      	sxtb	r3, r1
 8003e74:	4082      	lsls	r2, r0
 8003e76:	480f      	ldr	r0, [pc, #60]	; (8003eb4 <stm32_uart_request+0x3b4>)
 8003e78:	095c      	lsrs	r4, r3, #5
 8003e7a:	2b00      	cmp	r3, #0
 8003e7c:	f840 2024 	str.w	r2, [r0, r4, lsl #2]
 8003e80:	da05      	bge.n	8003e8e <stm32_uart_request+0x38e>
 8003e82:	4b0d      	ldr	r3, [pc, #52]	; (8003eb8 <stm32_uart_request+0x3b8>)
 8003e84:	f001 010f 	and.w	r1, r1, #15
 8003e88:	22d0      	movs	r2, #208	; 0xd0
 8003e8a:	545a      	strb	r2, [r3, r1]
 8003e8c:	e00b      	b.n	8003ea6 <stm32_uart_request+0x3a6>
 8003e8e:	f103 4360 	add.w	r3, r3, #3758096384	; 0xe0000000
 8003e92:	f503 4361 	add.w	r3, r3, #57600	; 0xe100
 8003e96:	22d0      	movs	r2, #208	; 0xd0
 8003e98:	f883 2300 	strb.w	r2, [r3, #768]	; 0x300
 8003e9c:	e003      	b.n	8003ea6 <stm32_uart_request+0x3a6>
 8003e9e:	4630      	mov	r0, r6
 8003ea0:	4621      	mov	r1, r4
 8003ea2:	f7ff fcf5 	bl	8003890 <stm32_uart_destroy>
 8003ea6:	b009      	add	sp, #36	; 0x24
 8003ea8:	e8bd 83f0 	ldmia.w	sp!, {r4, r5, r6, r7, r8, r9, pc}
 8003eac:	08005d64 	.word	0x08005d64
 8003eb0:	08003941 	.word	0x08003941
 8003eb4:	e000e100 	.word	0xe000e100
 8003eb8:	e000ed14 	.word	0xe000ed14

08003ebc <stm32_uart_init>:
 8003ebc:	2300      	movs	r3, #0
 8003ebe:	6143      	str	r3, [r0, #20]
 8003ec0:	6183      	str	r3, [r0, #24]
 8003ec2:	61c3      	str	r3, [r0, #28]
 8003ec4:	4770      	bx	lr

08003ec6 <ep_toggle_bits>:
 8003ec6:	b672      	cpsid	i
 8003ec8:	f000 007f 	and.w	r0, r0, #127	; 0x7f
 8003ecc:	f100 5080 	add.w	r0, r0, #268435456	; 0x10000000
 8003ed0:	f500 50b8 	add.w	r0, r0, #5888	; 0x1700
 8003ed4:	0080      	lsls	r0, r0, #2
 8003ed6:	8803      	ldrh	r3, [r0, #0]
 8003ed8:	4019      	ands	r1, r3
 8003eda:	f423 43e0 	bic.w	r3, r3, #28672	; 0x7000
 8003ede:	404a      	eors	r2, r1
 8003ee0:	f023 0370 	bic.w	r3, r3, #112	; 0x70
 8003ee4:	4313      	orrs	r3, r2
 8003ee6:	8003      	strh	r3, [r0, #0]
 8003ee8:	b662      	cpsie	i
 8003eea:	4770      	bx	lr

08003eec <memcpy16>:
 8003eec:	4b15      	ldr	r3, [pc, #84]	; (8003f44 <memcpy16+0x58>)
 8003eee:	b530      	push	{r4, r5, lr}
 8003ef0:	f420 647f 	bic.w	r4, r0, #4080	; 0xff0
 8003ef4:	f024 040f 	bic.w	r4, r4, #15
 8003ef8:	429c      	cmp	r4, r3
 8003efa:	bf04      	itt	eq
 8003efc:	f3c0 040b 	ubfxeq	r4, r0, #0, #12
 8003f00:	1900      	addeq	r0, r0, r4
 8003f02:	f421 647f 	bic.w	r4, r1, #4080	; 0xff0
 8003f06:	f024 040f 	bic.w	r4, r4, #15
 8003f0a:	429c      	cmp	r4, r3
 8003f0c:	bf08      	it	eq
 8003f0e:	f3c1 030b 	ubfxeq	r3, r1, #0, #12
 8003f12:	f102 0201 	add.w	r2, r2, #1
 8003f16:	bf08      	it	eq
 8003f18:	18c9      	addeq	r1, r1, r3
 8003f1a:	0852      	lsrs	r2, r2, #1
 8003f1c:	2300      	movs	r3, #0
 8003f1e:	4293      	cmp	r3, r2
 8003f20:	d00e      	beq.n	8003f40 <memcpy16+0x54>
 8003f22:	f831 4013 	ldrh.w	r4, [r1, r3, lsl #1]
 8003f26:	4d07      	ldr	r5, [pc, #28]	; (8003f44 <memcpy16+0x58>)
 8003f28:	f820 4013 	strh.w	r4, [r0, r3, lsl #1]
 8003f2c:	f420 647f 	bic.w	r4, r0, #4080	; 0xff0
 8003f30:	f024 040f 	bic.w	r4, r4, #15
 8003f34:	42ac      	cmp	r4, r5
 8003f36:	bf0c      	ite	eq
 8003f38:	3002      	addeq	r0, #2
 8003f3a:	3102      	addne	r1, #2
 8003f3c:	3301      	adds	r3, #1
 8003f3e:	e7ee      	b.n	8003f1e <memcpy16+0x32>
 8003f40:	bd30      	pop	{r4, r5, pc}
 8003f42:	bf00      	nop
 8003f44:	40006000 	.word	0x40006000

08003f48 <stm32_usb_tx>:
 8003f48:	b570      	push	{r4, r5, r6, lr}
 8003f4a:	eb00 0081 	add.w	r0, r0, r1, lsl #2
 8003f4e:	6bc6      	ldr	r6, [r0, #60]	; 0x3c
 8003f50:	0109      	lsls	r1, r1, #4
 8003f52:	6830      	ldr	r0, [r6, #0]
 8003f54:	6875      	ldr	r5, [r6, #4]
 8003f56:	68c3      	ldr	r3, [r0, #12]
 8003f58:	f101 4180 	add.w	r1, r1, #1073741824	; 0x40000000
 8003f5c:	1b5d      	subs	r5, r3, r5
 8003f5e:	8933      	ldrh	r3, [r6, #8]
 8003f60:	f501 41c0 	add.w	r1, r1, #24576	; 0x6000
 8003f64:	429d      	cmp	r5, r3
 8003f66:	bfa8      	it	ge
 8003f68:	461d      	movge	r5, r3
 8003f6a:	604d      	str	r5, [r1, #4]
 8003f6c:	680c      	ldr	r4, [r1, #0]
 8003f6e:	f000 fdfc 	bl	8004b6a <io_data>
 8003f72:	f104 4480 	add.w	r4, r4, #1073741824	; 0x40000000
 8003f76:	6871      	ldr	r1, [r6, #4]
 8003f78:	f504 44c0 	add.w	r4, r4, #24576	; 0x6000
 8003f7c:	4401      	add	r1, r0
 8003f7e:	462a      	mov	r2, r5
 8003f80:	4620      	mov	r0, r4
 8003f82:	e8bd 4070 	ldmia.w	sp!, {r4, r5, r6, lr}
 8003f86:	f7ff bfb1 	b.w	8003eec <memcpy16>
 8003f8a:	0000      	movs	r0, r0

08003f8c <stm32_usb_on_isr>:
 8003f8c:	e92d 43f0 	stmdb	sp!, {r4, r5, r6, r7, r8, r9, lr}
 8003f90:	4c8f      	ldr	r4, [pc, #572]	; (80041d0 <stm32_usb_on_isr+0x244>)
 8003f92:	b089      	sub	sp, #36	; 0x24
 8003f94:	f8b4 3044 	ldrh.w	r3, [r4, #68]	; 0x44
 8003f98:	460d      	mov	r5, r1
 8003f9a:	b29b      	uxth	r3, r3
 8003f9c:	055a      	lsls	r2, r3, #21
 8003f9e:	d519      	bpl.n	8003fd4 <stm32_usb_on_isr+0x48>
 8003fa0:	f8b4 3040 	ldrh.w	r3, [r4, #64]	; 0x40
 8003fa4:	6a8a      	ldr	r2, [r1, #40]	; 0x28
 8003fa6:	b29b      	uxth	r3, r3
 8003fa8:	f443 6300 	orr.w	r3, r3, #2048	; 0x800
 8003fac:	f8a4 3040 	strh.w	r3, [r4, #64]	; 0x40
 8003fb0:	2380      	movs	r3, #128	; 0x80
 8003fb2:	f8a4 304c 	strh.w	r3, [r4, #76]	; 0x4c
 8003fb6:	4b87      	ldr	r3, [pc, #540]	; (80041d4 <stm32_usb_on_isr+0x248>)
 8003fb8:	a803      	add	r0, sp, #12
 8003fba:	9304      	str	r3, [sp, #16]
 8003fbc:	23ff      	movs	r3, #255	; 0xff
 8003fbe:	9305      	str	r3, [sp, #20]
 8003fc0:	2301      	movs	r3, #1
 8003fc2:	9306      	str	r3, [sp, #24]
 8003fc4:	9203      	str	r2, [sp, #12]
 8003fc6:	f000 fd1f 	bl	8004a08 <ipc_ipost>
 8003fca:	f8b4 3044 	ldrh.w	r3, [r4, #68]	; 0x44
 8003fce:	f423 6380 	bic.w	r3, r3, #1024	; 0x400
 8003fd2:	e033      	b.n	800403c <stm32_usb_on_isr+0xb0>
 8003fd4:	051f      	lsls	r7, r3, #20
 8003fd6:	d519      	bpl.n	800400c <stm32_usb_on_isr+0x80>
 8003fd8:	f8b4 2040 	ldrh.w	r2, [r4, #64]	; 0x40
 8003fdc:	0516      	lsls	r6, r2, #20
 8003fde:	d515      	bpl.n	800400c <stm32_usb_on_isr+0x80>
 8003fe0:	f8b4 3040 	ldrh.w	r3, [r4, #64]	; 0x40
 8003fe4:	6a8a      	ldr	r2, [r1, #40]	; 0x28
 8003fe6:	f423 6300 	bic.w	r3, r3, #2048	; 0x800
 8003fea:	041b      	lsls	r3, r3, #16
 8003fec:	0c1b      	lsrs	r3, r3, #16
 8003fee:	f8a4 3040 	strh.w	r3, [r4, #64]	; 0x40
 8003ff2:	23ff      	movs	r3, #255	; 0xff
 8003ff4:	9305      	str	r3, [sp, #20]
 8003ff6:	4b78      	ldr	r3, [pc, #480]	; (80041d8 <stm32_usb_on_isr+0x24c>)
 8003ff8:	a803      	add	r0, sp, #12
 8003ffa:	9304      	str	r3, [sp, #16]
 8003ffc:	9203      	str	r2, [sp, #12]
 8003ffe:	f000 fd03 	bl	8004a08 <ipc_ipost>
 8004002:	f8b4 3044 	ldrh.w	r3, [r4, #68]	; 0x44
 8004006:	f423 6300 	bic.w	r3, r3, #2048	; 0x800
 800400a:	e017      	b.n	800403c <stm32_usb_on_isr+0xb0>
 800400c:	04d8      	lsls	r0, r3, #19
 800400e:	d51a      	bpl.n	8004046 <stm32_usb_on_isr+0xba>
 8004010:	4c6f      	ldr	r4, [pc, #444]	; (80041d0 <stm32_usb_on_isr+0x244>)
 8004012:	6aaa      	ldr	r2, [r5, #40]	; 0x28
 8004014:	f8b4 3040 	ldrh.w	r3, [r4, #64]	; 0x40
 8004018:	a803      	add	r0, sp, #12
 800401a:	b29b      	uxth	r3, r3
 800401c:	f443 6300 	orr.w	r3, r3, #2048	; 0x800
 8004020:	f8a4 3040 	strh.w	r3, [r4, #64]	; 0x40
 8004024:	23ff      	movs	r3, #255	; 0xff
 8004026:	9305      	str	r3, [sp, #20]
 8004028:	f103 1308 	add.w	r3, r3, #524296	; 0x80008
 800402c:	9304      	str	r3, [sp, #16]
 800402e:	9203      	str	r2, [sp, #12]
 8004030:	f000 fcea 	bl	8004a08 <ipc_ipost>
 8004034:	f8b4 3044 	ldrh.w	r3, [r4, #68]	; 0x44
 8004038:	f423 5380 	bic.w	r3, r3, #4096	; 0x1000
 800403c:	041b      	lsls	r3, r3, #16
 800403e:	0c1b      	lsrs	r3, r3, #16
 8004040:	f8a4 3044 	strh.w	r3, [r4, #68]	; 0x44
 8004044:	e0c0      	b.n	80041c8 <stm32_usb_on_isr+0x23c>
 8004046:	0419      	lsls	r1, r3, #16
 8004048:	f140 80be 	bpl.w	80041c8 <stm32_usb_on_isr+0x23c>
 800404c:	4e60      	ldr	r6, [pc, #384]	; (80041d0 <stm32_usb_on_isr+0x244>)
 800404e:	f8b6 4044 	ldrh.w	r4, [r6, #68]	; 0x44
 8004052:	f014 040f 	ands.w	r4, r4, #15
 8004056:	d121      	bne.n	800409c <stm32_usb_on_isr+0x110>
 8004058:	8833      	ldrh	r3, [r6, #0]
 800405a:	051a      	lsls	r2, r3, #20
 800405c:	d51e      	bpl.n	800409c <stm32_usb_on_isr+0x110>
 800405e:	4b5f      	ldr	r3, [pc, #380]	; (80041dc <stm32_usb_on_isr+0x250>)
 8004060:	4f5f      	ldr	r7, [pc, #380]	; (80041e0 <stm32_usb_on_isr+0x254>)
 8004062:	9304      	str	r3, [sp, #16]
 8004064:	6aab      	ldr	r3, [r5, #40]	; 0x28
 8004066:	9405      	str	r4, [sp, #20]
 8004068:	9303      	str	r3, [sp, #12]
 800406a:	68b9      	ldr	r1, [r7, #8]
 800406c:	a806      	add	r0, sp, #24
 800406e:	f101 4180 	add.w	r1, r1, #1073741824	; 0x40000000
 8004072:	f501 41c0 	add.w	r1, r1, #24576	; 0x6000
 8004076:	2204      	movs	r2, #4
 8004078:	f7ff ff38 	bl	8003eec <memcpy16>
 800407c:	68bb      	ldr	r3, [r7, #8]
 800407e:	4959      	ldr	r1, [pc, #356]	; (80041e4 <stm32_usb_on_isr+0x258>)
 8004080:	a807      	add	r0, sp, #28
 8004082:	4419      	add	r1, r3
 8004084:	2204      	movs	r2, #4
 8004086:	f7ff ff31 	bl	8003eec <memcpy16>
 800408a:	a803      	add	r0, sp, #12
 800408c:	f000 fcbc 	bl	8004a08 <ipc_ipost>
 8004090:	8833      	ldrh	r3, [r6, #0]
 8004092:	f023 0370 	bic.w	r3, r3, #112	; 0x70
 8004096:	051b      	lsls	r3, r3, #20
 8004098:	0d1b      	lsrs	r3, r3, #20
 800409a:	8033      	strh	r3, [r6, #0]
 800409c:	f104 5680 	add.w	r6, r4, #268435456	; 0x10000000
 80040a0:	f506 56b8 	add.w	r6, r6, #5888	; 0x1700
 80040a4:	00b6      	lsls	r6, r6, #2
 80040a6:	8833      	ldrh	r3, [r6, #0]
 80040a8:	061b      	lsls	r3, r3, #24
 80040aa:	d547      	bpl.n	800413c <stm32_usb_on_isr+0x1b0>
 80040ac:	f895 204c 	ldrb.w	r2, [r5, #76]	; 0x4c
 80040b0:	eb05 0384 	add.w	r3, r5, r4, lsl #2
 80040b4:	6bdf      	ldr	r7, [r3, #60]	; 0x3c
 80040b6:	b16a      	cbz	r2, 80040d4 <stm32_usb_on_isr+0x148>
 80040b8:	0123      	lsls	r3, r4, #4
 80040ba:	f103 4380 	add.w	r3, r3, #1073741824	; 0x40000000
 80040be:	f503 43c0 	add.w	r3, r3, #24576	; 0x6000
 80040c2:	685b      	ldr	r3, [r3, #4]
 80040c4:	b933      	cbnz	r3, 80040d4 <stm32_usb_on_isr+0x148>
 80040c6:	4942      	ldr	r1, [pc, #264]	; (80041d0 <stm32_usb_on_isr+0x244>)
 80040c8:	f042 0280 	orr.w	r2, r2, #128	; 0x80
 80040cc:	f8a1 204c 	strh.w	r2, [r1, #76]	; 0x4c
 80040d0:	f885 304c 	strb.w	r3, [r5, #76]	; 0x4c
 80040d4:	7abb      	ldrb	r3, [r7, #10]
 80040d6:	b333      	cbz	r3, 8004126 <stm32_usb_on_isr+0x19a>
 80040d8:	0123      	lsls	r3, r4, #4
 80040da:	f103 4380 	add.w	r3, r3, #1073741824	; 0x40000000
 80040de:	f503 43c0 	add.w	r3, r3, #24576	; 0x6000
 80040e2:	685a      	ldr	r2, [r3, #4]
 80040e4:	687b      	ldr	r3, [r7, #4]
 80040e6:	4413      	add	r3, r2
 80040e8:	683a      	ldr	r2, [r7, #0]
 80040ea:	607b      	str	r3, [r7, #4]
 80040ec:	68d2      	ldr	r2, [r2, #12]
 80040ee:	4293      	cmp	r3, r2
 80040f0:	d311      	bcc.n	8004116 <stm32_usb_on_isr+0x18a>
 80040f2:	4620      	mov	r0, r4
 80040f4:	2130      	movs	r1, #48	; 0x30
 80040f6:	2220      	movs	r2, #32
 80040f8:	f7ff fee5 	bl	8003ec6 <ep_toggle_bits>
 80040fc:	683b      	ldr	r3, [r7, #0]
 80040fe:	6aa8      	ldr	r0, [r5, #40]	; 0x28
 8004100:	68da      	ldr	r2, [r3, #12]
 8004102:	4939      	ldr	r1, [pc, #228]	; (80041e8 <stm32_usb_on_isr+0x25c>)
 8004104:	9200      	str	r2, [sp, #0]
 8004106:	f044 0280 	orr.w	r2, r4, #128	; 0x80
 800410a:	f000 fc89 	bl	8004a20 <ipc_ipost_inline>
 800410e:	2300      	movs	r3, #0
 8004110:	603b      	str	r3, [r7, #0]
 8004112:	72bb      	strb	r3, [r7, #10]
 8004114:	e00c      	b.n	8004130 <stm32_usb_on_isr+0x1a4>
 8004116:	4628      	mov	r0, r5
 8004118:	4621      	mov	r1, r4
 800411a:	f7ff ff15 	bl	8003f48 <stm32_usb_tx>
 800411e:	2130      	movs	r1, #48	; 0x30
 8004120:	4620      	mov	r0, r4
 8004122:	460a      	mov	r2, r1
 8004124:	e002      	b.n	800412c <stm32_usb_on_isr+0x1a0>
 8004126:	4620      	mov	r0, r4
 8004128:	2130      	movs	r1, #48	; 0x30
 800412a:	2220      	movs	r2, #32
 800412c:	f7ff fecb 	bl	8003ec6 <ep_toggle_bits>
 8004130:	8833      	ldrh	r3, [r6, #0]
 8004132:	f423 43e1 	bic.w	r3, r3, #28800	; 0x7080
 8004136:	f023 0370 	bic.w	r3, r3, #112	; 0x70
 800413a:	8033      	strh	r3, [r6, #0]
 800413c:	f9b6 3000 	ldrsh.w	r3, [r6]
 8004140:	2b00      	cmp	r3, #0
 8004142:	da41      	bge.n	80041c8 <stm32_usb_on_isr+0x23c>
 8004144:	ea4f 1804 	mov.w	r8, r4, lsl #4
 8004148:	eb05 0384 	add.w	r3, r5, r4, lsl #2
 800414c:	f108 4880 	add.w	r8, r8, #1073741824	; 0x40000000
 8004150:	6adf      	ldr	r7, [r3, #44]	; 0x2c
 8004152:	f508 48c0 	add.w	r8, r8, #24576	; 0x6000
 8004156:	f8d8 300c 	ldr.w	r3, [r8, #12]
 800415a:	6838      	ldr	r0, [r7, #0]
 800415c:	f3c3 0909 	ubfx	r9, r3, #0, #10
 8004160:	f000 fd03 	bl	8004b6a <io_data>
 8004164:	683b      	ldr	r3, [r7, #0]
 8004166:	f8d8 1008 	ldr.w	r1, [r8, #8]
 800416a:	68db      	ldr	r3, [r3, #12]
 800416c:	f101 4180 	add.w	r1, r1, #1073741824	; 0x40000000
 8004170:	4418      	add	r0, r3
 8004172:	f501 41c0 	add.w	r1, r1, #24576	; 0x6000
 8004176:	464a      	mov	r2, r9
 8004178:	f7ff feb8 	bl	8003eec <memcpy16>
 800417c:	8833      	ldrh	r3, [r6, #0]
 800417e:	683a      	ldr	r2, [r7, #0]
 8004180:	f023 0370 	bic.w	r3, r3, #112	; 0x70
 8004184:	051b      	lsls	r3, r3, #20
 8004186:	0d1b      	lsrs	r3, r3, #20
 8004188:	8033      	strh	r3, [r6, #0]
 800418a:	68d3      	ldr	r3, [r2, #12]
 800418c:	4620      	mov	r0, r4
 800418e:	444b      	add	r3, r9
 8004190:	60d3      	str	r3, [r2, #12]
 8004192:	687a      	ldr	r2, [r7, #4]
 8004194:	f44f 5140 	mov.w	r1, #12288	; 0x3000
 8004198:	4293      	cmp	r3, r2
 800419a:	d202      	bcs.n	80041a2 <stm32_usb_on_isr+0x216>
 800419c:	893b      	ldrh	r3, [r7, #8]
 800419e:	454b      	cmp	r3, r9
 80041a0:	d90f      	bls.n	80041c2 <stm32_usb_on_isr+0x236>
 80041a2:	f44f 5200 	mov.w	r2, #8192	; 0x2000
 80041a6:	f7ff fe8e 	bl	8003ec6 <ep_toggle_bits>
 80041aa:	683b      	ldr	r3, [r7, #0]
 80041ac:	6aa8      	ldr	r0, [r5, #40]	; 0x28
 80041ae:	68da      	ldr	r2, [r3, #12]
 80041b0:	490e      	ldr	r1, [pc, #56]	; (80041ec <stm32_usb_on_isr+0x260>)
 80041b2:	9200      	str	r2, [sp, #0]
 80041b4:	4622      	mov	r2, r4
 80041b6:	f000 fc33 	bl	8004a20 <ipc_ipost_inline>
 80041ba:	2300      	movs	r3, #0
 80041bc:	603b      	str	r3, [r7, #0]
 80041be:	72bb      	strb	r3, [r7, #10]
 80041c0:	e002      	b.n	80041c8 <stm32_usb_on_isr+0x23c>
 80041c2:	460a      	mov	r2, r1
 80041c4:	f7ff fe7f 	bl	8003ec6 <ep_toggle_bits>
 80041c8:	b009      	add	sp, #36	; 0x24
 80041ca:	e8bd 83f0 	ldmia.w	sp!, {r4, r5, r6, r7, r8, r9, pc}
 80041ce:	bf00      	nop
 80041d0:	40005c00 	.word	0x40005c00
 80041d4:	00080105 	.word	0x00080105
 80041d8:	00080106 	.word	0x00080106
 80041dc:	00080108 	.word	0x00080108
 80041e0:	40006000 	.word	0x40006000
 80041e4:	40006004 	.word	0x40006004
 80041e8:	40080004 	.word	0x40080004
 80041ec:	40080003 	.word	0x40080003

080041f0 <stm32_usb_io_prepare>:
 80041f0:	688b      	ldr	r3, [r1, #8]
 80041f2:	b510      	push	{r4, lr}
 80041f4:	f013 0f80 	tst.w	r3, #128	; 0x80
 80041f8:	f003 037f 	and.w	r3, r3, #127	; 0x7f
 80041fc:	eb00 0083 	add.w	r0, r0, r3, lsl #2
 8004200:	bf14      	ite	ne
 8004202:	6bc4      	ldrne	r4, [r0, #60]	; 0x3c
 8004204:	6ac4      	ldreq	r4, [r0, #44]	; 0x2c
 8004206:	b914      	cbnz	r4, 800420e <stm32_usb_io_prepare+0x1e>
 8004208:	f06f 0004 	mvn.w	r0, #4
 800420c:	e003      	b.n	8004216 <stm32_usb_io_prepare+0x26>
 800420e:	7aa3      	ldrb	r3, [r4, #10]
 8004210:	b12b      	cbz	r3, 800421e <stm32_usb_io_prepare+0x2e>
 8004212:	f04f 30ff 	mov.w	r0, #4294967295
 8004216:	f000 fcc6 	bl	8004ba6 <error>
 800421a:	2000      	movs	r0, #0
 800421c:	bd10      	pop	{r4, pc}
 800421e:	68cb      	ldr	r3, [r1, #12]
 8004220:	2001      	movs	r0, #1
 8004222:	6023      	str	r3, [r4, #0]
 8004224:	bd10      	pop	{r4, pc}
 8004226:	0000      	movs	r0, r0

08004228 <stm32_usb_ep_flush>:
 8004228:	b5f7      	push	{r0, r1, r2, r4, r5, r6, r7, lr}
 800422a:	f001 037f 	and.w	r3, r1, #127	; 0x7f
 800422e:	f011 0780 	ands.w	r7, r1, #128	; 0x80
 8004232:	4606      	mov	r6, r0
 8004234:	460d      	mov	r5, r1
 8004236:	eb00 0383 	add.w	r3, r0, r3, lsl #2
 800423a:	d002      	beq.n	8004242 <stm32_usb_ep_flush+0x1a>
 800423c:	6bdc      	ldr	r4, [r3, #60]	; 0x3c
 800423e:	b944      	cbnz	r4, 8004252 <stm32_usb_ep_flush+0x2a>
 8004240:	e001      	b.n	8004246 <stm32_usb_ep_flush+0x1e>
 8004242:	6adc      	ldr	r4, [r3, #44]	; 0x2c
 8004244:	b94c      	cbnz	r4, 800425a <stm32_usb_ep_flush+0x32>
 8004246:	f06f 0004 	mvn.w	r0, #4
 800424a:	f000 fcac 	bl	8004ba6 <error>
 800424e:	2000      	movs	r0, #0
 8004250:	e01d      	b.n	800428e <stm32_usb_ep_flush+0x66>
 8004252:	4608      	mov	r0, r1
 8004254:	2220      	movs	r2, #32
 8004256:	2130      	movs	r1, #48	; 0x30
 8004258:	e004      	b.n	8004264 <stm32_usb_ep_flush+0x3c>
 800425a:	4608      	mov	r0, r1
 800425c:	f44f 5200 	mov.w	r2, #8192	; 0x2000
 8004260:	f44f 5140 	mov.w	r1, #12288	; 0x3000
 8004264:	f7ff fe2f 	bl	8003ec6 <ep_toggle_bits>
 8004268:	6823      	ldr	r3, [r4, #0]
 800426a:	b16b      	cbz	r3, 8004288 <stm32_usb_ep_flush+0x60>
 800426c:	f06f 0268 	mvn.w	r2, #104	; 0x68
 8004270:	9200      	str	r2, [sp, #0]
 8004272:	4908      	ldr	r1, [pc, #32]	; (8004294 <stm32_usb_ep_flush+0x6c>)
 8004274:	4a08      	ldr	r2, [pc, #32]	; (8004298 <stm32_usb_ep_flush+0x70>)
 8004276:	6ab0      	ldr	r0, [r6, #40]	; 0x28
 8004278:	2f00      	cmp	r7, #0
 800427a:	bf08      	it	eq
 800427c:	4611      	moveq	r1, r2
 800427e:	462a      	mov	r2, r5
 8004280:	f000 fbb2 	bl	80049e8 <ipc_post_inline>
 8004284:	2300      	movs	r3, #0
 8004286:	6023      	str	r3, [r4, #0]
 8004288:	2300      	movs	r3, #0
 800428a:	72a3      	strb	r3, [r4, #10]
 800428c:	2001      	movs	r0, #1
 800428e:	b003      	add	sp, #12
 8004290:	bdf0      	pop	{r4, r5, r6, r7, pc}
 8004292:	bf00      	nop
 8004294:	40080004 	.word	0x40080004
 8004298:	40080003 	.word	0x40080003

0800429c <stm32_usb_close_ep>:
 800429c:	b5f8      	push	{r3, r4, r5, r6, r7, lr}
 800429e:	4604      	mov	r4, r0
 80042a0:	460e      	mov	r6, r1
 80042a2:	f7ff ffc1 	bl	8004228 <stm32_usb_ep_flush>
 80042a6:	b308      	cbz	r0, 80042ec <stm32_usb_close_ep+0x50>
 80042a8:	f016 0780 	ands.w	r7, r6, #128	; 0x80
 80042ac:	4630      	mov	r0, r6
 80042ae:	f006 057f 	and.w	r5, r6, #127	; 0x7f
 80042b2:	d007      	beq.n	80042c4 <stm32_usb_close_ep+0x28>
 80042b4:	2130      	movs	r1, #48	; 0x30
 80042b6:	2200      	movs	r2, #0
 80042b8:	f7ff fe05 	bl	8003ec6 <ep_toggle_bits>
 80042bc:	eb04 0385 	add.w	r3, r4, r5, lsl #2
 80042c0:	6bd8      	ldr	r0, [r3, #60]	; 0x3c
 80042c2:	e007      	b.n	80042d4 <stm32_usb_close_ep+0x38>
 80042c4:	f44f 5140 	mov.w	r1, #12288	; 0x3000
 80042c8:	463a      	mov	r2, r7
 80042ca:	f7ff fdfc 	bl	8003ec6 <ep_toggle_bits>
 80042ce:	eb04 0385 	add.w	r3, r4, r5, lsl #2
 80042d2:	6ad8      	ldr	r0, [r3, #44]	; 0x2c
 80042d4:	f000 fcd0 	bl	8004c78 <free>
 80042d8:	b12f      	cbz	r7, 80042e6 <stm32_usb_close_ep+0x4a>
 80042da:	350e      	adds	r5, #14
 80042dc:	eb04 0485 	add.w	r4, r4, r5, lsl #2
 80042e0:	2300      	movs	r3, #0
 80042e2:	6063      	str	r3, [r4, #4]
 80042e4:	bdf8      	pop	{r3, r4, r5, r6, r7, pc}
 80042e6:	eb04 0485 	add.w	r4, r4, r5, lsl #2
 80042ea:	62e7      	str	r7, [r4, #44]	; 0x2c
 80042ec:	bdf8      	pop	{r3, r4, r5, r6, r7, pc}

080042ee <stm32_usb_ep_set_stall>:
 80042ee:	b510      	push	{r4, lr}
 80042f0:	460c      	mov	r4, r1
 80042f2:	f7ff ff99 	bl	8004228 <stm32_usb_ep_flush>
 80042f6:	b160      	cbz	r0, 8004312 <stm32_usb_ep_set_stall+0x24>
 80042f8:	0623      	lsls	r3, r4, #24
 80042fa:	4620      	mov	r0, r4
 80042fc:	e8bd 4010 	ldmia.w	sp!, {r4, lr}
 8004300:	bf47      	ittee	mi
 8004302:	2130      	movmi	r1, #48	; 0x30
 8004304:	2210      	movmi	r2, #16
 8004306:	f44f 5140 	movpl.w	r1, #12288	; 0x3000
 800430a:	f44f 5280 	movpl.w	r2, #4096	; 0x1000
 800430e:	f7ff bdda 	b.w	8003ec6 <ep_toggle_bits>
 8004312:	bd10      	pop	{r4, pc}

08004314 <stm32_usb_ep_clear_stall>:
 8004314:	b510      	push	{r4, lr}
 8004316:	460c      	mov	r4, r1
 8004318:	f7ff ff86 	bl	8004228 <stm32_usb_ep_flush>
 800431c:	b160      	cbz	r0, 8004338 <stm32_usb_ep_clear_stall+0x24>
 800431e:	0623      	lsls	r3, r4, #24
 8004320:	4620      	mov	r0, r4
 8004322:	e8bd 4010 	ldmia.w	sp!, {r4, lr}
 8004326:	bf47      	ittee	mi
 8004328:	2130      	movmi	r1, #48	; 0x30
 800432a:	2220      	movmi	r2, #32
 800432c:	f44f 5140 	movpl.w	r1, #12288	; 0x3000
 8004330:	f44f 5200 	movpl.w	r2, #8192	; 0x2000
 8004334:	f7ff bdc7 	b.w	8003ec6 <ep_toggle_bits>
 8004338:	bd10      	pop	{r4, pc}

0800433a <stm32_usb_ep_is_stall>:
 800433a:	f010 0f80 	tst.w	r0, #128	; 0x80
 800433e:	f000 007f 	and.w	r0, r0, #127	; 0x7f
 8004342:	f100 5080 	add.w	r0, r0, #268435456	; 0x10000000
 8004346:	f500 50b8 	add.w	r0, r0, #5888	; 0x1700
 800434a:	ea4f 0080 	mov.w	r0, r0, lsl #2
 800434e:	8800      	ldrh	r0, [r0, #0]
 8004350:	d003      	beq.n	800435a <stm32_usb_ep_is_stall+0x20>
 8004352:	f000 0030 	and.w	r0, r0, #48	; 0x30
 8004356:	2810      	cmp	r0, #16
 8004358:	e003      	b.n	8004362 <stm32_usb_ep_is_stall+0x28>
 800435a:	f400 5040 	and.w	r0, r0, #12288	; 0x3000
 800435e:	f5b0 5f80 	cmp.w	r0, #4096	; 0x1000
 8004362:	bf14      	ite	ne
 8004364:	2000      	movne	r0, #0
 8004366:	2001      	moveq	r0, #1
 8004368:	4770      	bx	lr
 800436a:	0000      	movs	r0, r0

0800436c <stm32_usb_open_device>:
 800436c:	b538      	push	{r3, r4, r5, lr}
 800436e:	4b23      	ldr	r3, [pc, #140]	; (80043fc <stm32_usb_open_device+0x90>)
 8004370:	4c23      	ldr	r4, [pc, #140]	; (8004400 <stm32_usb_open_device+0x94>)
 8004372:	6a5a      	ldr	r2, [r3, #36]	; 0x24
 8004374:	6281      	str	r1, [r0, #40]	; 0x28
 8004376:	f442 0200 	orr.w	r2, r2, #8388608	; 0x800000
 800437a:	625a      	str	r2, [r3, #36]	; 0x24
 800437c:	f8b4 2040 	ldrh.w	r2, [r4, #64]	; 0x40
 8004380:	4605      	mov	r5, r0
 8004382:	f022 0202 	bic.w	r2, r2, #2
 8004386:	0412      	lsls	r2, r2, #16
 8004388:	0c12      	lsrs	r2, r2, #16
 800438a:	f8a4 2040 	strh.w	r2, [r4, #64]	; 0x40
 800438e:	2001      	movs	r0, #1
 8004390:	f000 fc2a 	bl	8004be8 <sleep_us>
 8004394:	f8b4 2040 	ldrh.w	r2, [r4, #64]	; 0x40
 8004398:	2300      	movs	r3, #0
 800439a:	f022 0201 	bic.w	r2, r2, #1
 800439e:	0412      	lsls	r2, r2, #16
 80043a0:	0c12      	lsrs	r2, r2, #16
 80043a2:	f8a4 2040 	strh.w	r2, [r4, #64]	; 0x40
 80043a6:	4a17      	ldr	r2, [pc, #92]	; (8004404 <stm32_usb_open_device+0x98>)
 80043a8:	f8a4 3044 	strh.w	r3, [r4, #68]	; 0x44
 80043ac:	f8a4 3050 	strh.w	r3, [r4, #80]	; 0x50
 80043b0:	2100      	movs	r1, #0
 80043b2:	4b15      	ldr	r3, [pc, #84]	; (8004408 <stm32_usb_open_device+0x9c>)
 80043b4:	6011      	str	r1, [r2, #0]
 80043b6:	6051      	str	r1, [r2, #4]
 80043b8:	6091      	str	r1, [r2, #8]
 80043ba:	60d1      	str	r1, [r2, #12]
 80043bc:	3210      	adds	r2, #16
 80043be:	429a      	cmp	r2, r3
 80043c0:	d1f6      	bne.n	80043b0 <stm32_usb_open_device+0x44>
 80043c2:	4a12      	ldr	r2, [pc, #72]	; (800440c <stm32_usb_open_device+0xa0>)
 80043c4:	462b      	mov	r3, r5
 80043c6:	200a      	movs	r0, #10
 80043c8:	2114      	movs	r1, #20
 80043ca:	f7fb ff51 	bl	8000270 <svc_call>
 80043ce:	4b10      	ldr	r3, [pc, #64]	; (8004410 <stm32_usb_open_device+0xa4>)
 80043d0:	f44f 1280 	mov.w	r2, #1048576	; 0x100000
 80043d4:	601a      	str	r2, [r3, #0]
 80043d6:	22d0      	movs	r2, #208	; 0xd0
 80043d8:	f883 2314 	strb.w	r2, [r3, #788]	; 0x314
 80043dc:	4a08      	ldr	r2, [pc, #32]	; (8004400 <stm32_usb_open_device+0x94>)
 80043de:	f8b2 3040 	ldrh.w	r3, [r2, #64]	; 0x40
 80043e2:	b29b      	uxth	r3, r3
 80043e4:	f443 431c 	orr.w	r3, r3, #39936	; 0x9c00
 80043e8:	f8a2 3040 	strh.w	r3, [r2, #64]	; 0x40
 80043ec:	f502 4224 	add.w	r2, r2, #41984	; 0xa400
 80043f0:	6853      	ldr	r3, [r2, #4]
 80043f2:	f043 0301 	orr.w	r3, r3, #1
 80043f6:	6053      	str	r3, [r2, #4]
 80043f8:	bd38      	pop	{r3, r4, r5, pc}
 80043fa:	bf00      	nop
 80043fc:	40023800 	.word	0x40023800
 8004400:	40005c00 	.word	0x40005c00
 8004404:	40006000 	.word	0x40006000
 8004408:	40006040 	.word	0x40006040
 800440c:	08003f8d 	.word	0x08003f8d
 8004410:	e000e100 	.word	0xe000e100

08004414 <stm32_usb_init>:
 8004414:	f04f 33ff 	mov.w	r3, #4294967295
 8004418:	6283      	str	r3, [r0, #40]	; 0x28
 800441a:	2300      	movs	r3, #0
 800441c:	f880 304c 	strb.w	r3, [r0, #76]	; 0x4c
 8004420:	62c3      	str	r3, [r0, #44]	; 0x2c
 8004422:	63c3      	str	r3, [r0, #60]	; 0x3c
 8004424:	6303      	str	r3, [r0, #48]	; 0x30
 8004426:	6403      	str	r3, [r0, #64]	; 0x40
 8004428:	6343      	str	r3, [r0, #52]	; 0x34
 800442a:	6443      	str	r3, [r0, #68]	; 0x44
 800442c:	6383      	str	r3, [r0, #56]	; 0x38
 800442e:	6483      	str	r3, [r0, #72]	; 0x48
 8004430:	4770      	bx	lr
 8004432:	0000      	movs	r0, r0

08004434 <stm32_usb_request>:
 8004434:	e92d 47f0 	stmdb	sp!, {r4, r5, r6, r7, r8, r9, sl, lr}
 8004438:	688e      	ldr	r6, [r1, #8]
 800443a:	4604      	mov	r4, r0
 800443c:	2eff      	cmp	r6, #255	; 0xff
 800443e:	460f      	mov	r7, r1
 8004440:	d15a      	bne.n	80044f8 <stm32_usb_request+0xc4>
 8004442:	684b      	ldr	r3, [r1, #4]
 8004444:	f3c3 030e 	ubfx	r3, r3, #0, #15
 8004448:	2b09      	cmp	r3, #9
 800444a:	d014      	beq.n	8004476 <stm32_usb_request+0x42>
 800444c:	d807      	bhi.n	800445e <stm32_usb_request+0x2a>
 800444e:	2b08      	cmp	r3, #8
 8004450:	f040 813f 	bne.w	80046d2 <stm32_usb_request+0x29e>
 8004454:	e8bd 47f0 	ldmia.w	sp!, {r4, r5, r6, r7, r8, r9, sl, lr}
 8004458:	6809      	ldr	r1, [r1, #0]
 800445a:	f7ff bf87 	b.w	800436c <stm32_usb_open_device>
 800445e:	f5b3 7f80 	cmp.w	r3, #256	; 0x100
 8004462:	d03d      	beq.n	80044e0 <stm32_usb_request+0xac>
 8004464:	f240 1201 	movw	r2, #257	; 0x101
 8004468:	4293      	cmp	r3, r2
 800446a:	f040 8132 	bne.w	80046d2 <stm32_usb_request+0x29e>
 800446e:	2301      	movs	r3, #1
 8004470:	60cb      	str	r3, [r1, #12]
 8004472:	e8bd 87f0 	ldmia.w	sp!, {r4, r5, r6, r7, r8, r9, sl, pc}
 8004476:	4a9b      	ldr	r2, [pc, #620]	; (80046e4 <stm32_usb_request+0x2b0>)
 8004478:	200b      	movs	r0, #11
 800447a:	6853      	ldr	r3, [r2, #4]
 800447c:	2114      	movs	r1, #20
 800447e:	f023 0301 	bic.w	r3, r3, #1
 8004482:	6053      	str	r3, [r2, #4]
 8004484:	4b98      	ldr	r3, [pc, #608]	; (80046e8 <stm32_usb_request+0x2b4>)
 8004486:	f44f 1280 	mov.w	r2, #1048576	; 0x100000
 800448a:	f8c3 2080 	str.w	r2, [r3, #128]	; 0x80
 800448e:	2200      	movs	r2, #0
 8004490:	4613      	mov	r3, r2
 8004492:	f7fb feed 	bl	8000270 <svc_call>
 8004496:	f104 0628 	add.w	r6, r4, #40	; 0x28
 800449a:	2500      	movs	r5, #0
 800449c:	f856 3f04 	ldr.w	r3, [r6, #4]!
 80044a0:	b11b      	cbz	r3, 80044aa <stm32_usb_request+0x76>
 80044a2:	4620      	mov	r0, r4
 80044a4:	4629      	mov	r1, r5
 80044a6:	f7ff fef9 	bl	800429c <stm32_usb_close_ep>
 80044aa:	6933      	ldr	r3, [r6, #16]
 80044ac:	b123      	cbz	r3, 80044b8 <stm32_usb_request+0x84>
 80044ae:	4620      	mov	r0, r4
 80044b0:	f045 0180 	orr.w	r1, r5, #128	; 0x80
 80044b4:	f7ff fef2 	bl	800429c <stm32_usb_close_ep>
 80044b8:	3501      	adds	r5, #1
 80044ba:	2d04      	cmp	r5, #4
 80044bc:	d1ee      	bne.n	800449c <stm32_usb_request+0x68>
 80044be:	f04f 33ff 	mov.w	r3, #4294967295
 80044c2:	62a3      	str	r3, [r4, #40]	; 0x28
 80044c4:	4b89      	ldr	r3, [pc, #548]	; (80046ec <stm32_usb_request+0x2b8>)
 80044c6:	2200      	movs	r2, #0
 80044c8:	f8a3 204c 	strh.w	r2, [r3, #76]	; 0x4c
 80044cc:	2203      	movs	r2, #3
 80044ce:	f8a3 2040 	strh.w	r2, [r3, #64]	; 0x40
 80044d2:	4a87      	ldr	r2, [pc, #540]	; (80046f0 <stm32_usb_request+0x2bc>)
 80044d4:	6a53      	ldr	r3, [r2, #36]	; 0x24
 80044d6:	f423 0300 	bic.w	r3, r3, #8388608	; 0x800000
 80044da:	6253      	str	r3, [r2, #36]	; 0x24
 80044dc:	e8bd 87f0 	ldmia.w	sp!, {r4, r5, r6, r7, r8, r9, sl, pc}
 80044e0:	68cb      	ldr	r3, [r1, #12]
 80044e2:	b11b      	cbz	r3, 80044ec <stm32_usb_request+0xb8>
 80044e4:	f880 304c 	strb.w	r3, [r0, #76]	; 0x4c
 80044e8:	e8bd 87f0 	ldmia.w	sp!, {r4, r5, r6, r7, r8, r9, sl, pc}
 80044ec:	4b7f      	ldr	r3, [pc, #508]	; (80046ec <stm32_usb_request+0x2b8>)
 80044ee:	2280      	movs	r2, #128	; 0x80
 80044f0:	f8a3 204c 	strh.w	r2, [r3, #76]	; 0x4c
 80044f4:	e8bd 87f0 	ldmia.w	sp!, {r4, r5, r6, r7, r8, r9, sl, pc}
 80044f8:	f006 057f 	and.w	r5, r6, #127	; 0x7f
 80044fc:	2d03      	cmp	r5, #3
 80044fe:	d902      	bls.n	8004506 <stm32_usb_request+0xd2>
 8004500:	f06f 0006 	mvn.w	r0, #6
 8004504:	e0e7      	b.n	80046d6 <stm32_usb_request+0x2a2>
 8004506:	684b      	ldr	r3, [r1, #4]
 8004508:	f3c3 030e 	ubfx	r3, r3, #0, #15
 800450c:	2b08      	cmp	r3, #8
 800450e:	d026      	beq.n	800455e <stm32_usb_request+0x12a>
 8004510:	d809      	bhi.n	8004526 <stm32_usb_request+0xf2>
 8004512:	2b04      	cmp	r3, #4
 8004514:	f000 80c1 	beq.w	800469a <stm32_usb_request+0x266>
 8004518:	2b06      	cmp	r3, #6
 800451a:	f000 8097 	beq.w	800464c <stm32_usb_request+0x218>
 800451e:	2b03      	cmp	r3, #3
 8004520:	f040 80d7 	bne.w	80046d2 <stm32_usb_request+0x29e>
 8004524:	e0a1      	b.n	800466a <stm32_usb_request+0x236>
 8004526:	f5b3 7f81 	cmp.w	r3, #258	; 0x102
 800452a:	f000 8094 	beq.w	8004656 <stm32_usb_request+0x222>
 800452e:	d807      	bhi.n	8004540 <stm32_usb_request+0x10c>
 8004530:	2b09      	cmp	r3, #9
 8004532:	f040 80ce 	bne.w	80046d2 <stm32_usb_request+0x29e>
 8004536:	4631      	mov	r1, r6
 8004538:	e8bd 47f0 	ldmia.w	sp!, {r4, r5, r6, r7, r8, r9, sl, lr}
 800453c:	f7ff beae 	b.w	800429c <stm32_usb_close_ep>
 8004540:	f240 1203 	movw	r2, #259	; 0x103
 8004544:	4293      	cmp	r3, r2
 8004546:	f000 808b 	beq.w	8004660 <stm32_usb_request+0x22c>
 800454a:	f5b3 7f82 	cmp.w	r3, #260	; 0x104
 800454e:	f040 80c0 	bne.w	80046d2 <stm32_usb_request+0x29e>
 8004552:	4630      	mov	r0, r6
 8004554:	f7ff fef1 	bl	800433a <stm32_usb_ep_is_stall>
 8004558:	60f8      	str	r0, [r7, #12]
 800455a:	e8bd 87f0 	ldmia.w	sp!, {r4, r5, r6, r7, r8, r9, sl, pc}
 800455e:	eb00 0385 	add.w	r3, r0, r5, lsl #2
 8004562:	f016 0880 	ands.w	r8, r6, #128	; 0x80
 8004566:	bf14      	ite	ne
 8004568:	6bdb      	ldrne	r3, [r3, #60]	; 0x3c
 800456a:	6adb      	ldreq	r3, [r3, #44]	; 0x2c
 800456c:	f8d1 a00c 	ldr.w	sl, [r1, #12]
 8004570:	690f      	ldr	r7, [r1, #16]
 8004572:	b113      	cbz	r3, 800457a <stm32_usb_request+0x146>
 8004574:	f06f 0005 	mvn.w	r0, #5
 8004578:	e0ad      	b.n	80046d6 <stm32_usb_request+0x2a2>
 800457a:	f100 0238 	add.w	r2, r0, #56	; 0x38
 800457e:	3048      	adds	r0, #72	; 0x48
 8004580:	f852 1f04 	ldr.w	r1, [r2, #4]!
 8004584:	b109      	cbz	r1, 800458a <stm32_usb_request+0x156>
 8004586:	8909      	ldrh	r1, [r1, #8]
 8004588:	440b      	add	r3, r1
 800458a:	f852 1c10 	ldr.w	r1, [r2, #-16]
 800458e:	b109      	cbz	r1, 8004594 <stm32_usb_request+0x160>
 8004590:	8909      	ldrh	r1, [r1, #8]
 8004592:	440b      	add	r3, r1
 8004594:	4282      	cmp	r2, r0
 8004596:	d1f3      	bne.n	8004580 <stm32_usb_request+0x14c>
 8004598:	200c      	movs	r0, #12
 800459a:	f103 0920 	add.w	r9, r3, #32
 800459e:	f000 fb4e 	bl	8004c3e <malloc>
 80045a2:	2800      	cmp	r0, #0
 80045a4:	f000 809b 	beq.w	80046de <stm32_usb_request+0x2aa>
 80045a8:	eb04 0485 	add.w	r4, r4, r5, lsl #2
 80045ac:	f1b8 0f00 	cmp.w	r8, #0
 80045b0:	d001      	beq.n	80045b6 <stm32_usb_request+0x182>
 80045b2:	63e0      	str	r0, [r4, #60]	; 0x3c
 80045b4:	e000      	b.n	80045b8 <stm32_usb_request+0x184>
 80045b6:	62e0      	str	r0, [r4, #44]	; 0x2c
 80045b8:	fa5f fa8a 	uxtb.w	sl, sl
 80045bc:	2300      	movs	r3, #0
 80045be:	f1ba 0f01 	cmp.w	sl, #1
 80045c2:	6003      	str	r3, [r0, #0]
 80045c4:	8103      	strh	r3, [r0, #8]
 80045c6:	7283      	strb	r3, [r0, #10]
 80045c8:	b2a9      	uxth	r1, r5
 80045ca:	d009      	beq.n	80045e0 <stm32_usb_request+0x1ac>
 80045cc:	d305      	bcc.n	80045da <stm32_usb_request+0x1a6>
 80045ce:	f1ba 0f03 	cmp.w	sl, #3
 80045d2:	d107      	bne.n	80045e4 <stm32_usb_request+0x1b0>
 80045d4:	f441 61c0 	orr.w	r1, r1, #1536	; 0x600
 80045d8:	e004      	b.n	80045e4 <stm32_usb_request+0x1b0>
 80045da:	f441 7100 	orr.w	r1, r1, #512	; 0x200
 80045de:	e001      	b.n	80045e4 <stm32_usb_request+0x1b0>
 80045e0:	f441 6180 	orr.w	r1, r1, #1024	; 0x400
 80045e4:	012b      	lsls	r3, r5, #4
 80045e6:	f103 4380 	add.w	r3, r3, #1073741824	; 0x40000000
 80045ea:	f503 43c0 	add.w	r3, r3, #24576	; 0x6000
 80045ee:	f1b8 0f00 	cmp.w	r8, #0
 80045f2:	d004      	beq.n	80045fe <stm32_usb_request+0x1ca>
 80045f4:	2200      	movs	r2, #0
 80045f6:	f8c3 9000 	str.w	r9, [r3]
 80045fa:	605a      	str	r2, [r3, #4]
 80045fc:	e010      	b.n	8004620 <stm32_usb_request+0x1ec>
 80045fe:	2f3e      	cmp	r7, #62	; 0x3e
 8004600:	bf85      	ittet	hi
 8004602:	f107 021f 	addhi.w	r2, r7, #31
 8004606:	0952      	lsrhi	r2, r2, #5
 8004608:	1c7a      	addls	r2, r7, #1
 800460a:	f102 32ff 	addhi.w	r2, r2, #4294967295
 800460e:	bf95      	itete	ls
 8004610:	0852      	lsrls	r2, r2, #1
 8004612:	0292      	lslhi	r2, r2, #10
 8004614:	0292      	lslls	r2, r2, #10
 8004616:	f442 4200 	orrhi.w	r2, r2, #32768	; 0x8000
 800461a:	f8c3 9008 	str.w	r9, [r3, #8]
 800461e:	60da      	str	r2, [r3, #12]
 8004620:	f105 5580 	add.w	r5, r5, #268435456	; 0x10000000
 8004624:	f505 55b8 	add.w	r5, r5, #5888	; 0x1700
 8004628:	00ad      	lsls	r5, r5, #2
 800462a:	8107      	strh	r7, [r0, #8]
 800462c:	8029      	strh	r1, [r5, #0]
 800462e:	4630      	mov	r0, r6
 8004630:	f1b8 0f00 	cmp.w	r8, #0
 8004634:	d002      	beq.n	800463c <stm32_usb_request+0x208>
 8004636:	2170      	movs	r1, #112	; 0x70
 8004638:	2220      	movs	r2, #32
 800463a:	e003      	b.n	8004644 <stm32_usb_request+0x210>
 800463c:	f44f 41e0 	mov.w	r1, #28672	; 0x7000
 8004640:	f44f 5200 	mov.w	r2, #8192	; 0x2000
 8004644:	e8bd 47f0 	ldmia.w	sp!, {r4, r5, r6, r7, r8, r9, sl, lr}
 8004648:	f7ff bc3d 	b.w	8003ec6 <ep_toggle_bits>
 800464c:	4631      	mov	r1, r6
 800464e:	e8bd 47f0 	ldmia.w	sp!, {r4, r5, r6, r7, r8, r9, sl, lr}
 8004652:	f7ff bde9 	b.w	8004228 <stm32_usb_ep_flush>
 8004656:	4631      	mov	r1, r6
 8004658:	e8bd 47f0 	ldmia.w	sp!, {r4, r5, r6, r7, r8, r9, sl, lr}
 800465c:	f7ff be47 	b.w	80042ee <stm32_usb_ep_set_stall>
 8004660:	4631      	mov	r1, r6
 8004662:	e8bd 47f0 	ldmia.w	sp!, {r4, r5, r6, r7, r8, r9, sl, lr}
 8004666:	f7ff be55 	b.w	8004314 <stm32_usb_ep_clear_stall>
 800466a:	eb00 0485 	add.w	r4, r0, r5, lsl #2
 800466e:	6ae4      	ldr	r4, [r4, #44]	; 0x2c
 8004670:	f7ff fdbe 	bl	80041f0 <stm32_usb_io_prepare>
 8004674:	b398      	cbz	r0, 80046de <stm32_usb_request+0x2aa>
 8004676:	6823      	ldr	r3, [r4, #0]
 8004678:	2200      	movs	r2, #0
 800467a:	731a      	strb	r2, [r3, #12]
 800467c:	735a      	strb	r2, [r3, #13]
 800467e:	739a      	strb	r2, [r3, #14]
 8004680:	73da      	strb	r2, [r3, #15]
 8004682:	693b      	ldr	r3, [r7, #16]
 8004684:	2601      	movs	r6, #1
 8004686:	f44f 5140 	mov.w	r1, #12288	; 0x3000
 800468a:	4628      	mov	r0, r5
 800468c:	6063      	str	r3, [r4, #4]
 800468e:	72a6      	strb	r6, [r4, #10]
 8004690:	460a      	mov	r2, r1
 8004692:	f7ff fc18 	bl	8003ec6 <ep_toggle_bits>
 8004696:	4630      	mov	r0, r6
 8004698:	e01d      	b.n	80046d6 <stm32_usb_request+0x2a2>
 800469a:	eb00 0385 	add.w	r3, r0, r5, lsl #2
 800469e:	6bde      	ldr	r6, [r3, #60]	; 0x3c
 80046a0:	f7ff fda6 	bl	80041f0 <stm32_usb_io_prepare>
 80046a4:	b1d8      	cbz	r0, 80046de <stm32_usb_request+0x2aa>
 80046a6:	2300      	movs	r3, #0
 80046a8:	6073      	str	r3, [r6, #4]
 80046aa:	4620      	mov	r0, r4
 80046ac:	4629      	mov	r1, r5
 80046ae:	f7ff fc4b 	bl	8003f48 <stm32_usb_tx>
 80046b2:	2130      	movs	r1, #48	; 0x30
 80046b4:	460a      	mov	r2, r1
 80046b6:	4628      	mov	r0, r5
 80046b8:	f7ff fc05 	bl	8003ec6 <ep_toggle_bits>
 80046bc:	6833      	ldr	r3, [r6, #0]
 80046be:	6872      	ldr	r2, [r6, #4]
 80046c0:	68db      	ldr	r3, [r3, #12]
 80046c2:	429a      	cmp	r2, r3
 80046c4:	d302      	bcc.n	80046cc <stm32_usb_request+0x298>
 80046c6:	613b      	str	r3, [r7, #16]
 80046c8:	e8bd 87f0 	ldmia.w	sp!, {r4, r5, r6, r7, r8, r9, sl, pc}
 80046cc:	2001      	movs	r0, #1
 80046ce:	72b0      	strb	r0, [r6, #10]
 80046d0:	e001      	b.n	80046d6 <stm32_usb_request+0x2a2>
 80046d2:	f06f 0001 	mvn.w	r0, #1
 80046d6:	e8bd 47f0 	ldmia.w	sp!, {r4, r5, r6, r7, r8, r9, sl, lr}
 80046da:	f000 ba64 	b.w	8004ba6 <error>
 80046de:	e8bd 87f0 	ldmia.w	sp!, {r4, r5, r6, r7, r8, r9, sl, pc}
 80046e2:	bf00      	nop
 80046e4:	40010000 	.word	0x40010000
 80046e8:	e000e100 	.word	0xe000e100
 80046ec:	40005c00 	.word	0x40005c00
 80046f0:	40023800 	.word	0x40023800

080046f4 <stm32_spi_on_isr>:
 80046f4:	b573      	push	{r0, r1, r4, r5, r6, lr}
 80046f6:	f1b0 0623 	subs.w	r6, r0, #35	; 0x23
 80046fa:	bf18      	it	ne
 80046fc:	2601      	movne	r6, #1
 80046fe:	f106 0308 	add.w	r3, r6, #8
 8004702:	f851 4023 	ldr.w	r4, [r1, r3, lsl #2]
 8004706:	4b1b      	ldr	r3, [pc, #108]	; (8004774 <stm32_spi_on_isr+0x80>)
 8004708:	f853 5026 	ldr.w	r5, [r3, r6, lsl #2]
 800470c:	68ab      	ldr	r3, [r5, #8]
 800470e:	f013 0fe0 	tst.w	r3, #224	; 0xe0
 8004712:	bf1f      	itttt	ne
 8004714:	68ab      	ldrne	r3, [r5, #8]
 8004716:	68ab      	ldrne	r3, [r5, #8]
 8004718:	68ab      	ldrne	r3, [r5, #8]
 800471a:	68ab      	ldrne	r3, [r5, #8]
 800471c:	bf1c      	itt	ne
 800471e:	68ab      	ldrne	r3, [r5, #8]
 8004720:	68ab      	ldrne	r3, [r5, #8]
 8004722:	68ab      	ldr	r3, [r5, #8]
 8004724:	079a      	lsls	r2, r3, #30
 8004726:	d50d      	bpl.n	8004744 <stm32_spi_on_isr+0x50>
 8004728:	68a3      	ldr	r3, [r4, #8]
 800472a:	1e5a      	subs	r2, r3, #1
 800472c:	2b00      	cmp	r3, #0
 800472e:	60a2      	str	r2, [r4, #8]
 8004730:	dd08      	ble.n	8004744 <stm32_spi_on_isr+0x50>
 8004732:	6820      	ldr	r0, [r4, #0]
 8004734:	f000 fa19 	bl	8004b6a <io_data>
 8004738:	6823      	ldr	r3, [r4, #0]
 800473a:	68a2      	ldr	r2, [r4, #8]
 800473c:	68db      	ldr	r3, [r3, #12]
 800473e:	1a9b      	subs	r3, r3, r2
 8004740:	5cc3      	ldrb	r3, [r0, r3]
 8004742:	60eb      	str	r3, [r5, #12]
 8004744:	68ab      	ldr	r3, [r5, #8]
 8004746:	07db      	lsls	r3, r3, #31
 8004748:	d512      	bpl.n	8004770 <stm32_spi_on_isr+0x7c>
 800474a:	6820      	ldr	r0, [r4, #0]
 800474c:	f000 fa0d 	bl	8004b6a <io_data>
 8004750:	68ea      	ldr	r2, [r5, #12]
 8004752:	68e3      	ldr	r3, [r4, #12]
 8004754:	54c2      	strb	r2, [r0, r3]
 8004756:	68e1      	ldr	r1, [r4, #12]
 8004758:	6823      	ldr	r3, [r4, #0]
 800475a:	3101      	adds	r1, #1
 800475c:	60e1      	str	r1, [r4, #12]
 800475e:	68da      	ldr	r2, [r3, #12]
 8004760:	428a      	cmp	r2, r1
 8004762:	d105      	bne.n	8004770 <stm32_spi_on_isr+0x7c>
 8004764:	9200      	str	r2, [sp, #0]
 8004766:	6860      	ldr	r0, [r4, #4]
 8004768:	4903      	ldr	r1, [pc, #12]	; (8004778 <stm32_spi_on_isr+0x84>)
 800476a:	4632      	mov	r2, r6
 800476c:	f000 f958 	bl	8004a20 <ipc_ipost_inline>
 8004770:	b002      	add	sp, #8
 8004772:	bd70      	pop	{r4, r5, r6, pc}
 8004774:	08005d8c 	.word	0x08005d8c
 8004778:	400c0003 	.word	0x400c0003

0800477c <stm32_spi_init>:
 800477c:	2300      	movs	r3, #0
 800477e:	6203      	str	r3, [r0, #32]
 8004780:	6243      	str	r3, [r0, #36]	; 0x24
 8004782:	4770      	bx	lr

08004784 <stm32_spi_open>:
 8004784:	e92d 41f0 	stmdb	sp!, {r4, r5, r6, r7, r8, lr}
 8004788:	eb00 0881 	add.w	r8, r0, r1, lsl #2
 800478c:	f8d8 7020 	ldr.w	r7, [r8, #32]
 8004790:	4605      	mov	r5, r0
 8004792:	460c      	mov	r4, r1
 8004794:	4616      	mov	r6, r2
 8004796:	b117      	cbz	r7, 800479e <stm32_spi_open+0x1a>
 8004798:	f06f 0005 	mvn.w	r0, #5
 800479c:	e020      	b.n	80047e0 <stm32_spi_open+0x5c>
 800479e:	2010      	movs	r0, #16
 80047a0:	f000 fa4d 	bl	8004c3e <malloc>
 80047a4:	b910      	cbnz	r0, 80047ac <stm32_spi_open+0x28>
 80047a6:	f06f 00c8 	mvn.w	r0, #200	; 0xc8
 80047aa:	e019      	b.n	80047e0 <stm32_spi_open+0x5c>
 80047ac:	4b27      	ldr	r3, [pc, #156]	; (800484c <stm32_spi_open+0xc8>)
 80047ae:	f8c8 0020 	str.w	r0, [r8, #32]
 80047b2:	6007      	str	r7, [r0, #0]
 80047b4:	f853 0024 	ldr.w	r0, [r3, r4, lsl #2]
 80047b8:	6803      	ldr	r3, [r0, #0]
 80047ba:	f023 0340 	bic.w	r3, r3, #64	; 0x40
 80047be:	6003      	str	r3, [r0, #0]
 80047c0:	b13c      	cbz	r4, 80047d2 <stm32_spi_open+0x4e>
 80047c2:	2c01      	cmp	r4, #1
 80047c4:	d10b      	bne.n	80047de <stm32_spi_open+0x5a>
 80047c6:	4b22      	ldr	r3, [pc, #136]	; (8004850 <stm32_spi_open+0xcc>)
 80047c8:	6a59      	ldr	r1, [r3, #36]	; 0x24
 80047ca:	f441 4180 	orr.w	r1, r1, #16384	; 0x4000
 80047ce:	6259      	str	r1, [r3, #36]	; 0x24
 80047d0:	e00a      	b.n	80047e8 <stm32_spi_open+0x64>
 80047d2:	4a1f      	ldr	r2, [pc, #124]	; (8004850 <stm32_spi_open+0xcc>)
 80047d4:	6a13      	ldr	r3, [r2, #32]
 80047d6:	f443 5380 	orr.w	r3, r3, #4096	; 0x1000
 80047da:	6213      	str	r3, [r2, #32]
 80047dc:	e004      	b.n	80047e8 <stm32_spi_open+0x64>
 80047de:	481d      	ldr	r0, [pc, #116]	; (8004854 <stm32_spi_open+0xd0>)
 80047e0:	e8bd 41f0 	ldmia.w	sp!, {r4, r5, r6, r7, r8, lr}
 80047e4:	f000 b9df 	b.w	8004ba6 <error>
 80047e8:	2302      	movs	r3, #2
 80047ea:	6083      	str	r3, [r0, #8]
 80047ec:	2320      	movs	r3, #32
 80047ee:	6006      	str	r6, [r0, #0]
 80047f0:	6043      	str	r3, [r0, #4]
 80047f2:	69c2      	ldr	r2, [r0, #28]
 80047f4:	4b18      	ldr	r3, [pc, #96]	; (8004858 <stm32_spi_open+0xd4>)
 80047f6:	f422 6200 	bic.w	r2, r2, #2048	; 0x800
 80047fa:	61c2      	str	r2, [r0, #28]
 80047fc:	6802      	ldr	r2, [r0, #0]
 80047fe:	5d1c      	ldrb	r4, [r3, r4]
 8004800:	f042 0240 	orr.w	r2, r2, #64	; 0x40
 8004804:	4621      	mov	r1, r4
 8004806:	6002      	str	r2, [r0, #0]
 8004808:	462b      	mov	r3, r5
 800480a:	4a14      	ldr	r2, [pc, #80]	; (800485c <stm32_spi_open+0xd8>)
 800480c:	200a      	movs	r0, #10
 800480e:	f7fb fd2f 	bl	8000270 <svc_call>
 8004812:	b263      	sxtb	r3, r4
 8004814:	2b00      	cmp	r3, #0
 8004816:	bfbb      	ittet	lt
 8004818:	4a11      	ldrlt	r2, [pc, #68]	; (8004860 <stm32_spi_open+0xdc>)
 800481a:	f004 010f 	andlt.w	r1, r4, #15
 800481e:	f103 4260 	addge.w	r2, r3, #3758096384	; 0xe0000000
 8004822:	1852      	addlt	r2, r2, r1
 8004824:	bfab      	itete	ge
 8004826:	f502 4261 	addge.w	r2, r2, #57600	; 0xe100
 800482a:	21d0      	movlt	r1, #208	; 0xd0
 800482c:	21d0      	movge	r1, #208	; 0xd0
 800482e:	7611      	strblt	r1, [r2, #24]
 8004830:	bfa8      	it	ge
 8004832:	f882 1300 	strbge.w	r1, [r2, #768]	; 0x300
 8004836:	f004 041f 	and.w	r4, r4, #31
 800483a:	2201      	movs	r2, #1
 800483c:	4909      	ldr	r1, [pc, #36]	; (8004864 <stm32_spi_open+0xe0>)
 800483e:	095b      	lsrs	r3, r3, #5
 8004840:	40a2      	lsls	r2, r4
 8004842:	f841 2023 	str.w	r2, [r1, r3, lsl #2]
 8004846:	e8bd 81f0 	ldmia.w	sp!, {r4, r5, r6, r7, r8, pc}
 800484a:	bf00      	nop
 800484c:	08005d8c 	.word	0x08005d8c
 8004850:	40023800 	.word	0x40023800
 8004854:	fffffe70 	.word	0xfffffe70
 8004858:	08005d88 	.word	0x08005d88
 800485c:	080046f5 	.word	0x080046f5
 8004860:	e000ecfc 	.word	0xe000ecfc
 8004864:	e000e100 	.word	0xe000e100

08004868 <stm32_spi_byte>:
 8004868:	7a0b      	ldrb	r3, [r1, #8]
 800486a:	b510      	push	{r4, lr}
 800486c:	f103 0408 	add.w	r4, r3, #8
 8004870:	f850 0024 	ldr.w	r0, [r0, r4, lsl #2]
 8004874:	68ca      	ldr	r2, [r1, #12]
 8004876:	b928      	cbnz	r0, 8004884 <stm32_spi_byte+0x1c>
 8004878:	f06f 0004 	mvn.w	r0, #4
 800487c:	e8bd 4010 	ldmia.w	sp!, {r4, lr}
 8004880:	f000 b991 	b.w	8004ba6 <error>
 8004884:	4805      	ldr	r0, [pc, #20]	; (800489c <stm32_spi_byte+0x34>)
 8004886:	b2d2      	uxtb	r2, r2
 8004888:	f850 3023 	ldr.w	r3, [r0, r3, lsl #2]
 800488c:	60da      	str	r2, [r3, #12]
 800488e:	689a      	ldr	r2, [r3, #8]
 8004890:	07d2      	lsls	r2, r2, #31
 8004892:	d5fc      	bpl.n	800488e <stm32_spi_byte+0x26>
 8004894:	68db      	ldr	r3, [r3, #12]
 8004896:	b2db      	uxtb	r3, r3
 8004898:	60cb      	str	r3, [r1, #12]
 800489a:	bd10      	pop	{r4, pc}
 800489c:	08005d8c 	.word	0x08005d8c

080048a0 <stm32_spi_request>:
 80048a0:	b510      	push	{r4, lr}
 80048a2:	7a0c      	ldrb	r4, [r1, #8]
 80048a4:	460a      	mov	r2, r1
 80048a6:	2c01      	cmp	r4, #1
 80048a8:	d902      	bls.n	80048b0 <stm32_spi_request+0x10>
 80048aa:	f06f 0006 	mvn.w	r0, #6
 80048ae:	e01b      	b.n	80048e8 <stm32_spi_request+0x48>
 80048b0:	684b      	ldr	r3, [r1, #4]
 80048b2:	f3c3 030e 	ubfx	r3, r3, #0, #15
 80048b6:	f5b3 7f80 	cmp.w	r3, #256	; 0x100
 80048ba:	d00f      	beq.n	80048dc <stm32_spi_request+0x3c>
 80048bc:	d804      	bhi.n	80048c8 <stm32_spi_request+0x28>
 80048be:	2b08      	cmp	r3, #8
 80048c0:	d006      	beq.n	80048d0 <stm32_spi_request+0x30>
 80048c2:	2b09      	cmp	r3, #9
 80048c4:	d014      	beq.n	80048f0 <stm32_spi_request+0x50>
 80048c6:	e00d      	b.n	80048e4 <stm32_spi_request+0x44>
 80048c8:	f5b3 7f81 	cmp.w	r3, #258	; 0x102
 80048cc:	d80a      	bhi.n	80048e4 <stm32_spi_request+0x44>
 80048ce:	bd10      	pop	{r4, pc}
 80048d0:	4621      	mov	r1, r4
 80048d2:	e8bd 4010 	ldmia.w	sp!, {r4, lr}
 80048d6:	68d2      	ldr	r2, [r2, #12]
 80048d8:	f7ff bf54 	b.w	8004784 <stm32_spi_open>
 80048dc:	e8bd 4010 	ldmia.w	sp!, {r4, lr}
 80048e0:	f7ff bfc2 	b.w	8004868 <stm32_spi_byte>
 80048e4:	f06f 0001 	mvn.w	r0, #1
 80048e8:	e8bd 4010 	ldmia.w	sp!, {r4, lr}
 80048ec:	f000 b95b 	b.w	8004ba6 <error>
 80048f0:	bd10      	pop	{r4, pc}

080048f2 <ipc_index>:
 80048f2:	f04f 5300 	mov.w	r3, #536870912	; 0x20000000
 80048f6:	b5f0      	push	{r4, r5, r6, r7, lr}
 80048f8:	681c      	ldr	r4, [r3, #0]
 80048fa:	f8d4 e01c 	ldr.w	lr, [r4, #28]
 80048fe:	6a23      	ldr	r3, [r4, #32]
 8004900:	4573      	cmp	r3, lr
 8004902:	d01b      	beq.n	800493c <ipc_index+0x4a>
 8004904:	2514      	movs	r5, #20
 8004906:	435d      	muls	r5, r3
 8004908:	f104 0628 	add.w	r6, r4, #40	; 0x28
 800490c:	1977      	adds	r7, r6, r5
 800490e:	5975      	ldr	r5, [r6, r5]
 8004910:	4285      	cmp	r5, r0
 8004912:	d001      	beq.n	8004918 <ipc_index+0x26>
 8004914:	1c85      	adds	r5, r0, #2
 8004916:	d109      	bne.n	800492c <ipc_index+0x3a>
 8004918:	687d      	ldr	r5, [r7, #4]
 800491a:	428d      	cmp	r5, r1
 800491c:	d001      	beq.n	8004922 <ipc_index+0x30>
 800491e:	1c4e      	adds	r6, r1, #1
 8004920:	d104      	bne.n	800492c <ipc_index+0x3a>
 8004922:	68bd      	ldr	r5, [r7, #8]
 8004924:	4295      	cmp	r5, r2
 8004926:	d00c      	beq.n	8004942 <ipc_index+0x50>
 8004928:	1c95      	adds	r5, r2, #2
 800492a:	d00a      	beq.n	8004942 <ipc_index+0x50>
 800492c:	6a66      	ldr	r6, [r4, #36]	; 0x24
 800492e:	1c5d      	adds	r5, r3, #1
 8004930:	42b5      	cmp	r5, r6
 8004932:	f04f 0300 	mov.w	r3, #0
 8004936:	bf38      	it	cc
 8004938:	462b      	movcc	r3, r5
 800493a:	e7e1      	b.n	8004900 <ipc_index+0xe>
 800493c:	f04f 30ff 	mov.w	r0, #4294967295
 8004940:	bdf0      	pop	{r4, r5, r6, r7, pc}
 8004942:	4618      	mov	r0, r3
 8004944:	bdf0      	pop	{r4, r5, r6, r7, pc}

08004946 <ipc_peek>:
 8004946:	e92d 41f0 	stmdb	sp!, {r4, r5, r6, r7, r8, lr}
 800494a:	4604      	mov	r4, r0
 800494c:	460e      	mov	r6, r1
 800494e:	b086      	sub	sp, #24
 8004950:	f04f 5800 	mov.w	r8, #536870912	; 0x20000000
 8004954:	f8d8 1000 	ldr.w	r1, [r8]
 8004958:	2714      	movs	r7, #20
 800495a:	6a0b      	ldr	r3, [r1, #32]
 800495c:	429c      	cmp	r4, r3
 800495e:	d02f      	beq.n	80049c0 <ipc_peek+0x7a>
 8004960:	fb07 f504 	mul.w	r5, r7, r4
 8004964:	3128      	adds	r1, #40	; 0x28
 8004966:	4429      	add	r1, r5
 8004968:	463a      	mov	r2, r7
 800496a:	a801      	add	r0, sp, #4
 800496c:	f000 fcb4 	bl	80052d8 <memcpy>
 8004970:	f8d8 3000 	ldr.w	r3, [r8]
 8004974:	2c00      	cmp	r4, #0
 8004976:	f103 0128 	add.w	r1, r3, #40	; 0x28
 800497a:	bfd7      	itett	le
 800497c:	6a5b      	ldrle	r3, [r3, #36]	; 0x24
 800497e:	f1a5 0314 	subgt.w	r3, r5, #20
 8004982:	437b      	mulle	r3, r7
 8004984:	3b14      	suble	r3, #20
 8004986:	1868      	adds	r0, r5, r1
 8004988:	2214      	movs	r2, #20
 800498a:	4419      	add	r1, r3
 800498c:	f000 fca4 	bl	80052d8 <memcpy>
 8004990:	f04f 5300 	mov.w	r3, #536870912	; 0x20000000
 8004994:	681a      	ldr	r2, [r3, #0]
 8004996:	2c00      	cmp	r4, #0
 8004998:	bfde      	ittt	le
 800499a:	6a55      	ldrle	r5, [r2, #36]	; 0x24
 800499c:	2314      	movle	r3, #20
 800499e:	435d      	mulle	r5, r3
 80049a0:	f102 0028 	add.w	r0, r2, #40	; 0x28
 80049a4:	3d14      	subs	r5, #20
 80049a6:	4428      	add	r0, r5
 80049a8:	a901      	add	r1, sp, #4
 80049aa:	2214      	movs	r2, #20
 80049ac:	f000 fc94 	bl	80052d8 <memcpy>
 80049b0:	2c00      	cmp	r4, #0
 80049b2:	bfde      	ittt	le
 80049b4:	f04f 5300 	movle.w	r3, #536870912	; 0x20000000
 80049b8:	681b      	ldrle	r3, [r3, #0]
 80049ba:	6a5c      	ldrle	r4, [r3, #36]	; 0x24
 80049bc:	3c01      	subs	r4, #1
 80049be:	e7c7      	b.n	8004950 <ipc_peek+0xa>
 80049c0:	fb07 1104 	mla	r1, r7, r4, r1
 80049c4:	463a      	mov	r2, r7
 80049c6:	4630      	mov	r0, r6
 80049c8:	3128      	adds	r1, #40	; 0x28
 80049ca:	f000 fc85 	bl	80052d8 <memcpy>
 80049ce:	f8d8 2000 	ldr.w	r2, [r8]
 80049d2:	4630      	mov	r0, r6
 80049d4:	6a13      	ldr	r3, [r2, #32]
 80049d6:	6a51      	ldr	r1, [r2, #36]	; 0x24
 80049d8:	3301      	adds	r3, #1
 80049da:	428b      	cmp	r3, r1
 80049dc:	bf28      	it	cs
 80049de:	2300      	movcs	r3, #0
 80049e0:	6213      	str	r3, [r2, #32]
 80049e2:	b006      	add	sp, #24
 80049e4:	e8bd 81f0 	ldmia.w	sp!, {r4, r5, r6, r7, r8, pc}

080049e8 <ipc_post_inline>:
 80049e8:	b57f      	push	{r0, r1, r2, r3, r4, r5, r6, lr}
 80049ea:	9304      	str	r3, [sp, #16]
 80049ec:	9b08      	ldr	r3, [sp, #32]
 80049ee:	9203      	str	r2, [sp, #12]
 80049f0:	2200      	movs	r2, #0
 80049f2:	9001      	str	r0, [sp, #4]
 80049f4:	9102      	str	r1, [sp, #8]
 80049f6:	9305      	str	r3, [sp, #20]
 80049f8:	2014      	movs	r0, #20
 80049fa:	a901      	add	r1, sp, #4
 80049fc:	4613      	mov	r3, r2
 80049fe:	f7fb fc37 	bl	8000270 <svc_call>
 8004a02:	b007      	add	sp, #28
 8004a04:	f85d fb04 	ldr.w	pc, [sp], #4

08004a08 <ipc_ipost>:
 8004a08:	b510      	push	{r4, lr}
 8004a0a:	f04f 5300 	mov.w	r3, #536870912	; 0x20000000
 8004a0e:	685c      	ldr	r4, [r3, #4]
 8004a10:	2200      	movs	r2, #0
 8004a12:	4601      	mov	r1, r0
 8004a14:	46a4      	mov	ip, r4
 8004a16:	e8bd 4010 	ldmia.w	sp!, {r4, lr}
 8004a1a:	2014      	movs	r0, #20
 8004a1c:	4613      	mov	r3, r2
 8004a1e:	4760      	bx	ip

08004a20 <ipc_ipost_inline>:
 8004a20:	b57f      	push	{r0, r1, r2, r3, r4, r5, r6, lr}
 8004a22:	9304      	str	r3, [sp, #16]
 8004a24:	9b08      	ldr	r3, [sp, #32]
 8004a26:	9001      	str	r0, [sp, #4]
 8004a28:	a801      	add	r0, sp, #4
 8004a2a:	9102      	str	r1, [sp, #8]
 8004a2c:	9203      	str	r2, [sp, #12]
 8004a2e:	9305      	str	r3, [sp, #20]
 8004a30:	f7ff ffea 	bl	8004a08 <ipc_ipost>
 8004a34:	b007      	add	sp, #28
 8004a36:	f85d fb04 	ldr.w	pc, [sp], #4

08004a3a <ipc_write>:
 8004a3a:	6843      	ldr	r3, [r0, #4]
 8004a3c:	b510      	push	{r4, lr}
 8004a3e:	041a      	lsls	r2, r3, #16
 8004a40:	4604      	mov	r4, r0
 8004a42:	d512      	bpl.n	8004a6a <ipc_write+0x30>
 8004a44:	f423 4300 	bic.w	r3, r3, #32768	; 0x8000
 8004a48:	6043      	str	r3, [r0, #4]
 8004a4a:	f000 f8a7 	bl	8004b9c <get_last_error>
 8004a4e:	b120      	cbz	r0, 8004a5a <ipc_write+0x20>
 8004a50:	2801      	cmp	r0, #1
 8004a52:	d00a      	beq.n	8004a6a <ipc_write+0x30>
 8004a54:	f000 f8a2 	bl	8004b9c <get_last_error>
 8004a58:	6120      	str	r0, [r4, #16]
 8004a5a:	2200      	movs	r2, #0
 8004a5c:	4621      	mov	r1, r4
 8004a5e:	e8bd 4010 	ldmia.w	sp!, {r4, lr}
 8004a62:	2014      	movs	r0, #20
 8004a64:	4613      	mov	r3, r2
 8004a66:	f7fb bc03 	b.w	8000270 <svc_call>
 8004a6a:	bd10      	pop	{r4, pc}

08004a6c <ipc_read>:
 8004a6c:	b510      	push	{r4, lr}
 8004a6e:	4604      	mov	r4, r0
 8004a70:	2000      	movs	r0, #0
 8004a72:	f000 f898 	bl	8004ba6 <error>
 8004a76:	f04f 5300 	mov.w	r3, #536870912	; 0x20000000
 8004a7a:	681b      	ldr	r3, [r3, #0]
 8004a7c:	69da      	ldr	r2, [r3, #28]
 8004a7e:	6a1b      	ldr	r3, [r3, #32]
 8004a80:	429a      	cmp	r2, r3
 8004a82:	d107      	bne.n	8004a94 <ipc_read+0x28>
 8004a84:	f06f 0101 	mvn.w	r1, #1
 8004a88:	2015      	movs	r0, #21
 8004a8a:	f04f 32ff 	mov.w	r2, #4294967295
 8004a8e:	460b      	mov	r3, r1
 8004a90:	f7fb fbee 	bl	8000270 <svc_call>
 8004a94:	f04f 5300 	mov.w	r3, #536870912	; 0x20000000
 8004a98:	681b      	ldr	r3, [r3, #0]
 8004a9a:	4621      	mov	r1, r4
 8004a9c:	6a18      	ldr	r0, [r3, #32]
 8004a9e:	f7ff ff52 	bl	8004946 <ipc_peek>
 8004aa2:	6863      	ldr	r3, [r4, #4]
 8004aa4:	f5b3 4f00 	cmp.w	r3, #32768	; 0x8000
 8004aa8:	d103      	bne.n	8004ab2 <ipc_read+0x46>
 8004aaa:	4620      	mov	r0, r4
 8004aac:	f7ff ffc5 	bl	8004a3a <ipc_write>
 8004ab0:	e7de      	b.n	8004a70 <ipc_read+0x4>
 8004ab2:	bd10      	pop	{r4, pc}

08004ab4 <call>:
 8004ab4:	b510      	push	{r4, lr}
 8004ab6:	4604      	mov	r4, r0
 8004ab8:	2200      	movs	r2, #0
 8004aba:	4621      	mov	r1, r4
 8004abc:	4613      	mov	r3, r2
 8004abe:	2016      	movs	r0, #22
 8004ac0:	f7fb fbd6 	bl	8000270 <svc_call>
 8004ac4:	e894 0003 	ldmia.w	r4, {r0, r1}
 8004ac8:	68a2      	ldr	r2, [r4, #8]
 8004aca:	f421 4100 	bic.w	r1, r1, #32768	; 0x8000
 8004ace:	f7ff ff10 	bl	80048f2 <ipc_index>
 8004ad2:	4621      	mov	r1, r4
 8004ad4:	e8bd 4010 	ldmia.w	sp!, {r4, lr}
 8004ad8:	f7ff bf35 	b.w	8004946 <ipc_peek>

08004adc <ack>:
 8004adc:	b57f      	push	{r0, r1, r2, r3, r4, r5, r6, lr}
 8004ade:	9304      	str	r3, [sp, #16]
 8004ae0:	9b08      	ldr	r3, [sp, #32]
 8004ae2:	9001      	str	r0, [sp, #4]
 8004ae4:	a801      	add	r0, sp, #4
 8004ae6:	9102      	str	r1, [sp, #8]
 8004ae8:	9203      	str	r2, [sp, #12]
 8004aea:	9305      	str	r3, [sp, #20]
 8004aec:	f7ff ffe2 	bl	8004ab4 <call>
 8004af0:	b007      	add	sp, #28
 8004af2:	f85d fb04 	ldr.w	pc, [sp], #4

08004af6 <get>:
 8004af6:	b57f      	push	{r0, r1, r2, r3, r4, r5, r6, lr}
 8004af8:	9304      	str	r3, [sp, #16]
 8004afa:	9b08      	ldr	r3, [sp, #32]
 8004afc:	9001      	str	r0, [sp, #4]
 8004afe:	a801      	add	r0, sp, #4
 8004b00:	9102      	str	r1, [sp, #8]
 8004b02:	9203      	str	r2, [sp, #12]
 8004b04:	9305      	str	r3, [sp, #20]
 8004b06:	f7ff ffd5 	bl	8004ab4 <call>
 8004b0a:	9805      	ldr	r0, [sp, #20]
 8004b0c:	2800      	cmp	r0, #0
 8004b0e:	da01      	bge.n	8004b14 <get+0x1e>
 8004b10:	f000 f849 	bl	8004ba6 <error>
 8004b14:	9804      	ldr	r0, [sp, #16]
 8004b16:	b007      	add	sp, #28
 8004b18:	f85d fb04 	ldr.w	pc, [sp], #4

08004b1c <get_handle>:
 8004b1c:	b57f      	push	{r0, r1, r2, r3, r4, r5, r6, lr}
 8004b1e:	9304      	str	r3, [sp, #16]
 8004b20:	9b08      	ldr	r3, [sp, #32]
 8004b22:	9001      	str	r0, [sp, #4]
 8004b24:	a801      	add	r0, sp, #4
 8004b26:	9305      	str	r3, [sp, #20]
 8004b28:	9102      	str	r1, [sp, #8]
 8004b2a:	9203      	str	r2, [sp, #12]
 8004b2c:	f7ff ffc2 	bl	8004ab4 <call>
 8004b30:	9b04      	ldr	r3, [sp, #16]
 8004b32:	3301      	adds	r3, #1
 8004b34:	d102      	bne.n	8004b3c <get_handle+0x20>
 8004b36:	9805      	ldr	r0, [sp, #20]
 8004b38:	f000 f835 	bl	8004ba6 <error>
 8004b3c:	9804      	ldr	r0, [sp, #16]
 8004b3e:	b007      	add	sp, #28
 8004b40:	f85d fb04 	ldr.w	pc, [sp], #4

08004b44 <get_size>:
 8004b44:	b57f      	push	{r0, r1, r2, r3, r4, r5, r6, lr}
 8004b46:	9304      	str	r3, [sp, #16]
 8004b48:	9b08      	ldr	r3, [sp, #32]
 8004b4a:	9001      	str	r0, [sp, #4]
 8004b4c:	a801      	add	r0, sp, #4
 8004b4e:	9102      	str	r1, [sp, #8]
 8004b50:	9203      	str	r2, [sp, #12]
 8004b52:	9305      	str	r3, [sp, #20]
 8004b54:	f7ff ffae 	bl	8004ab4 <call>
 8004b58:	9805      	ldr	r0, [sp, #20]
 8004b5a:	2800      	cmp	r0, #0
 8004b5c:	da01      	bge.n	8004b62 <get_size+0x1e>
 8004b5e:	f000 f822 	bl	8004ba6 <error>
 8004b62:	9805      	ldr	r0, [sp, #20]
 8004b64:	b007      	add	sp, #28
 8004b66:	f85d fb04 	ldr.w	pc, [sp], #4

08004b6a <io_data>:
 8004b6a:	6883      	ldr	r3, [r0, #8]
 8004b6c:	4418      	add	r0, r3
 8004b6e:	4770      	bx	lr

08004b70 <process_create>:
 8004b70:	b507      	push	{r0, r1, r2, lr}
 8004b72:	4601      	mov	r1, r0
 8004b74:	2000      	movs	r0, #0
 8004b76:	4603      	mov	r3, r0
 8004b78:	aa01      	add	r2, sp, #4
 8004b7a:	f7fb fb79 	bl	8000270 <svc_call>
 8004b7e:	9801      	ldr	r0, [sp, #4]
 8004b80:	b003      	add	sp, #12
 8004b82:	f85d fb04 	ldr.w	pc, [sp], #4

08004b86 <process_get_current>:
 8004b86:	b507      	push	{r0, r1, r2, lr}
 8004b88:	2200      	movs	r2, #0
 8004b8a:	2001      	movs	r0, #1
 8004b8c:	a901      	add	r1, sp, #4
 8004b8e:	4613      	mov	r3, r2
 8004b90:	f7fb fb6e 	bl	8000270 <svc_call>
 8004b94:	9801      	ldr	r0, [sp, #4]
 8004b96:	b003      	add	sp, #12
 8004b98:	f85d fb04 	ldr.w	pc, [sp], #4

08004b9c <get_last_error>:
 8004b9c:	f04f 5300 	mov.w	r3, #536870912	; 0x20000000
 8004ba0:	681b      	ldr	r3, [r3, #0]
 8004ba2:	6818      	ldr	r0, [r3, #0]
 8004ba4:	4770      	bx	lr

08004ba6 <error>:
 8004ba6:	f04f 5300 	mov.w	r3, #536870912	; 0x20000000
 8004baa:	681b      	ldr	r3, [r3, #0]
 8004bac:	6018      	str	r0, [r3, #0]
 8004bae:	4770      	bx	lr

08004bb0 <process_iget_current>:
 8004bb0:	b513      	push	{r0, r1, r4, lr}
 8004bb2:	2200      	movs	r2, #0
 8004bb4:	f04f 5300 	mov.w	r3, #536870912	; 0x20000000
 8004bb8:	685c      	ldr	r4, [r3, #4]
 8004bba:	2001      	movs	r0, #1
 8004bbc:	a901      	add	r1, sp, #4
 8004bbe:	4613      	mov	r3, r2
 8004bc0:	47a0      	blx	r4
 8004bc2:	9801      	ldr	r0, [sp, #4]
 8004bc4:	b002      	add	sp, #8
 8004bc6:	bd10      	pop	{r4, pc}

08004bc8 <sleep>:
 8004bc8:	2200      	movs	r2, #0
 8004bca:	4601      	mov	r1, r0
 8004bcc:	4613      	mov	r3, r2
 8004bce:	2007      	movs	r0, #7
 8004bd0:	f7fb bb4e 	b.w	8000270 <svc_call>

08004bd4 <sleep_ms>:
 8004bd4:	b507      	push	{r0, r1, r2, lr}
 8004bd6:	4669      	mov	r1, sp
 8004bd8:	f000 f86f 	bl	8004cba <ms_to_systime>
 8004bdc:	4668      	mov	r0, sp
 8004bde:	f7ff fff3 	bl	8004bc8 <sleep>
 8004be2:	b003      	add	sp, #12
 8004be4:	f85d fb04 	ldr.w	pc, [sp], #4

08004be8 <sleep_us>:
 8004be8:	b507      	push	{r0, r1, r2, lr}
 8004bea:	4669      	mov	r1, sp
 8004bec:	f000 f85f 	bl	8004cae <us_to_systime>
 8004bf0:	4668      	mov	r0, sp
 8004bf2:	f7ff ffe9 	bl	8004bc8 <sleep>
 8004bf6:	b003      	add	sp, #12
 8004bf8:	f85d fb04 	ldr.w	pc, [sp], #4

08004bfc <process_info>:
 8004bfc:	2100      	movs	r1, #0
 8004bfe:	2009      	movs	r0, #9
 8004c00:	460a      	mov	r2, r1
 8004c02:	460b      	mov	r3, r1
 8004c04:	f7fb bb34 	b.w	8000270 <svc_call>

08004c08 <format>:
 8004c08:	b510      	push	{r4, lr}
 8004c0a:	f04f 5400 	mov.w	r4, #536870912	; 0x20000000
 8004c0e:	68a4      	ldr	r4, [r4, #8]
 8004c10:	6864      	ldr	r4, [r4, #4]
 8004c12:	6824      	ldr	r4, [r4, #0]
 8004c14:	46a4      	mov	ip, r4
 8004c16:	e8bd 4010 	ldmia.w	sp!, {r4, lr}
 8004c1a:	4760      	bx	ip

08004c1c <printf>:
 8004c1c:	b40f      	push	{r0, r1, r2, r3}
 8004c1e:	b507      	push	{r0, r1, r2, lr}
 8004c20:	a904      	add	r1, sp, #16
 8004c22:	f851 0b04 	ldr.w	r0, [r1], #4
 8004c26:	f04f 5300 	mov.w	r3, #536870912	; 0x20000000
 8004c2a:	9101      	str	r1, [sp, #4]
 8004c2c:	689b      	ldr	r3, [r3, #8]
 8004c2e:	685b      	ldr	r3, [r3, #4]
 8004c30:	685b      	ldr	r3, [r3, #4]
 8004c32:	4798      	blx	r3
 8004c34:	b003      	add	sp, #12
 8004c36:	f85d eb04 	ldr.w	lr, [sp], #4
 8004c3a:	b004      	add	sp, #16
 8004c3c:	4770      	bx	lr

08004c3e <malloc>:
 8004c3e:	b510      	push	{r4, lr}
 8004c40:	4601      	mov	r1, r0
 8004c42:	466a      	mov	r2, sp
 8004c44:	f04f 5300 	mov.w	r3, #536870912	; 0x20000000
 8004c48:	6898      	ldr	r0, [r3, #8]
 8004c4a:	6804      	ldr	r4, [r0, #0]
 8004c4c:	6818      	ldr	r0, [r3, #0]
 8004c4e:	68e3      	ldr	r3, [r4, #12]
 8004c50:	3004      	adds	r0, #4
 8004c52:	e8bd 4010 	ldmia.w	sp!, {r4, lr}
 8004c56:	4718      	bx	r3

08004c58 <realloc>:
 8004c58:	b530      	push	{r4, r5, lr}
 8004c5a:	460a      	mov	r2, r1
 8004c5c:	4605      	mov	r5, r0
 8004c5e:	466b      	mov	r3, sp
 8004c60:	f04f 5100 	mov.w	r1, #536870912	; 0x20000000
 8004c64:	6888      	ldr	r0, [r1, #8]
 8004c66:	6804      	ldr	r4, [r0, #0]
 8004c68:	6808      	ldr	r0, [r1, #0]
 8004c6a:	6964      	ldr	r4, [r4, #20]
 8004c6c:	4629      	mov	r1, r5
 8004c6e:	46a4      	mov	ip, r4
 8004c70:	e8bd 4030 	ldmia.w	sp!, {r4, r5, lr}
 8004c74:	3004      	adds	r0, #4
 8004c76:	4760      	bx	ip

08004c78 <free>:
 8004c78:	f04f 5300 	mov.w	r3, #536870912	; 0x20000000
 8004c7c:	689a      	ldr	r2, [r3, #8]
 8004c7e:	4601      	mov	r1, r0
 8004c80:	6812      	ldr	r2, [r2, #0]
 8004c82:	6818      	ldr	r0, [r3, #0]
 8004c84:	6993      	ldr	r3, [r2, #24]
 8004c86:	3004      	adds	r0, #4
 8004c88:	4718      	bx	r3

08004c8a <systime_compare>:
 8004c8a:	f04f 5300 	mov.w	r3, #536870912	; 0x20000000
 8004c8e:	689b      	ldr	r3, [r3, #8]
 8004c90:	689b      	ldr	r3, [r3, #8]
 8004c92:	681b      	ldr	r3, [r3, #0]
 8004c94:	4718      	bx	r3

08004c96 <systime_add>:
 8004c96:	f04f 5300 	mov.w	r3, #536870912	; 0x20000000
 8004c9a:	689b      	ldr	r3, [r3, #8]
 8004c9c:	689b      	ldr	r3, [r3, #8]
 8004c9e:	685b      	ldr	r3, [r3, #4]
 8004ca0:	4718      	bx	r3

08004ca2 <systime_sub>:
 8004ca2:	f04f 5300 	mov.w	r3, #536870912	; 0x20000000
 8004ca6:	689b      	ldr	r3, [r3, #8]
 8004ca8:	689b      	ldr	r3, [r3, #8]
 8004caa:	689b      	ldr	r3, [r3, #8]
 8004cac:	4718      	bx	r3

08004cae <us_to_systime>:
 8004cae:	f04f 5300 	mov.w	r3, #536870912	; 0x20000000
 8004cb2:	689b      	ldr	r3, [r3, #8]
 8004cb4:	689b      	ldr	r3, [r3, #8]
 8004cb6:	68db      	ldr	r3, [r3, #12]
 8004cb8:	4718      	bx	r3

08004cba <ms_to_systime>:
 8004cba:	f04f 5300 	mov.w	r3, #536870912	; 0x20000000
 8004cbe:	689b      	ldr	r3, [r3, #8]
 8004cc0:	689b      	ldr	r3, [r3, #8]
 8004cc2:	691b      	ldr	r3, [r3, #16]
 8004cc4:	4718      	bx	r3

08004cc6 <get_uptime>:
 8004cc6:	2200      	movs	r2, #0
 8004cc8:	4601      	mov	r1, r0
 8004cca:	4613      	mov	r3, r2
 8004ccc:	200c      	movs	r0, #12
 8004cce:	f7fb bacf 	b.w	8000270 <svc_call>

08004cd2 <systime_hpet_setup>:
 8004cd2:	4603      	mov	r3, r0
 8004cd4:	460a      	mov	r2, r1
 8004cd6:	200f      	movs	r0, #15
 8004cd8:	4619      	mov	r1, r3
 8004cda:	2300      	movs	r3, #0
 8004cdc:	f7fb bac8 	b.w	8000270 <svc_call>

08004ce0 <systime_second_pulse>:
 8004ce0:	b510      	push	{r4, lr}
 8004ce2:	f04f 5300 	mov.w	r3, #536870912	; 0x20000000
 8004ce6:	685c      	ldr	r4, [r3, #4]
 8004ce8:	2100      	movs	r1, #0
 8004cea:	46a4      	mov	ip, r4
 8004cec:	e8bd 4010 	ldmia.w	sp!, {r4, lr}
 8004cf0:	200d      	movs	r0, #13
 8004cf2:	460a      	mov	r2, r1
 8004cf4:	460b      	mov	r3, r1
 8004cf6:	4760      	bx	ip

08004cf8 <systime_hpet_timeout>:
 8004cf8:	b510      	push	{r4, lr}
 8004cfa:	f04f 5300 	mov.w	r3, #536870912	; 0x20000000
 8004cfe:	685c      	ldr	r4, [r3, #4]
 8004d00:	2100      	movs	r1, #0
 8004d02:	46a4      	mov	ip, r4
 8004d04:	e8bd 4010 	ldmia.w	sp!, {r4, lr}
 8004d08:	200e      	movs	r0, #14
 8004d0a:	460a      	mov	r2, r1
 8004d0c:	460b      	mov	r3, r1
 8004d0e:	4760      	bx	ip

08004d10 <object_get.constprop.0>:
 8004d10:	b507      	push	{r0, r1, r2, lr}
 8004d12:	f04f 33ff 	mov.w	r3, #4294967295
 8004d16:	aa02      	add	r2, sp, #8
 8004d18:	f842 3d04 	str.w	r3, [r2, #-4]!
 8004d1c:	2027      	movs	r0, #39	; 0x27
 8004d1e:	2101      	movs	r1, #1
 8004d20:	2300      	movs	r3, #0
 8004d22:	f7fb faa5 	bl	8000270 <svc_call>
 8004d26:	9801      	ldr	r0, [sp, #4]
 8004d28:	b003      	add	sp, #12
 8004d2a:	f85d fb04 	ldr.w	pc, [sp], #4

08004d2e <uart_encode_baudrate>:
 8004d2e:	6803      	ldr	r3, [r0, #0]
 8004d30:	60cb      	str	r3, [r1, #12]
 8004d32:	7943      	ldrb	r3, [r0, #5]
 8004d34:	7902      	ldrb	r2, [r0, #4]
 8004d36:	021b      	lsls	r3, r3, #8
 8004d38:	ea43 4302 	orr.w	r3, r3, r2, lsl #16
 8004d3c:	7982      	ldrb	r2, [r0, #6]
 8004d3e:	4313      	orrs	r3, r2
 8004d40:	610b      	str	r3, [r1, #16]
 8004d42:	4770      	bx	lr

08004d44 <uart_decode_baudrate>:
 8004d44:	68c3      	ldr	r3, [r0, #12]
 8004d46:	600b      	str	r3, [r1, #0]
 8004d48:	8a43      	ldrh	r3, [r0, #18]
 8004d4a:	710b      	strb	r3, [r1, #4]
 8004d4c:	6903      	ldr	r3, [r0, #16]
 8004d4e:	0a1b      	lsrs	r3, r3, #8
 8004d50:	714b      	strb	r3, [r1, #5]
 8004d52:	6903      	ldr	r3, [r0, #16]
 8004d54:	718b      	strb	r3, [r1, #6]
 8004d56:	4770      	bx	lr

08004d58 <uart_setup_printk>:
 8004d58:	b513      	push	{r0, r1, r4, lr}
 8004d5a:	4604      	mov	r4, r0
 8004d5c:	f7ff ffd8 	bl	8004d10 <object_get.constprop.0>
 8004d60:	2300      	movs	r3, #0
 8004d62:	9300      	str	r3, [sp, #0]
 8004d64:	4902      	ldr	r1, [pc, #8]	; (8004d70 <uart_setup_printk+0x18>)
 8004d66:	4622      	mov	r2, r4
 8004d68:	f7ff feb8 	bl	8004adc <ack>
 8004d6c:	b002      	add	sp, #8
 8004d6e:	bd10      	pop	{r4, pc}
 8004d70:	00078104 	.word	0x00078104

08004d74 <uart_setup_stdout>:
 8004d74:	b537      	push	{r0, r1, r2, r4, r5, lr}
 8004d76:	4605      	mov	r5, r0
 8004d78:	2400      	movs	r4, #0
 8004d7a:	f7ff ffc9 	bl	8004d10 <object_get.constprop.0>
 8004d7e:	462a      	mov	r2, r5
 8004d80:	4623      	mov	r3, r4
 8004d82:	9400      	str	r4, [sp, #0]
 8004d84:	4905      	ldr	r1, [pc, #20]	; (8004d9c <uart_setup_stdout+0x28>)
 8004d86:	f7ff fec9 	bl	8004b1c <get_handle>
 8004d8a:	4621      	mov	r1, r4
 8004d8c:	4602      	mov	r2, r0
 8004d8e:	4623      	mov	r3, r4
 8004d90:	2026      	movs	r0, #38	; 0x26
 8004d92:	b003      	add	sp, #12
 8004d94:	e8bd 4030 	ldmia.w	sp!, {r4, r5, lr}
 8004d98:	f7fb ba6a 	b.w	8000270 <svc_call>
 8004d9c:	0007800b 	.word	0x0007800b

08004da0 <uart_open>:
 8004da0:	b537      	push	{r0, r1, r2, r4, r5, lr}
 8004da2:	460c      	mov	r4, r1
 8004da4:	4605      	mov	r5, r0
 8004da6:	f7ff ffb3 	bl	8004d10 <object_get.constprop.0>
 8004daa:	2300      	movs	r3, #0
 8004dac:	9300      	str	r3, [sp, #0]
 8004dae:	4905      	ldr	r1, [pc, #20]	; (8004dc4 <uart_open+0x24>)
 8004db0:	462a      	mov	r2, r5
 8004db2:	4623      	mov	r3, r4
 8004db4:	f7ff feb2 	bl	8004b1c <get_handle>
 8004db8:	3001      	adds	r0, #1
 8004dba:	bf18      	it	ne
 8004dbc:	2001      	movne	r0, #1
 8004dbe:	b003      	add	sp, #12
 8004dc0:	bd30      	pop	{r4, r5, pc}
 8004dc2:	bf00      	nop
 8004dc4:	00078008 	.word	0x00078008

08004dc8 <uart_set_baudrate>:
 8004dc8:	b510      	push	{r4, lr}
 8004dca:	4604      	mov	r4, r0
 8004dcc:	b086      	sub	sp, #24
 8004dce:	4608      	mov	r0, r1
 8004dd0:	a901      	add	r1, sp, #4
 8004dd2:	f7ff ffac 	bl	8004d2e <uart_encode_baudrate>
 8004dd6:	4b05      	ldr	r3, [pc, #20]	; (8004dec <uart_set_baudrate+0x24>)
 8004dd8:	9403      	str	r4, [sp, #12]
 8004dda:	9302      	str	r3, [sp, #8]
 8004ddc:	f7ff ff98 	bl	8004d10 <object_get.constprop.0>
 8004de0:	9001      	str	r0, [sp, #4]
 8004de2:	a801      	add	r0, sp, #4
 8004de4:	f7ff fe66 	bl	8004ab4 <call>
 8004de8:	b006      	add	sp, #24
 8004dea:	bd10      	pop	{r4, pc}
 8004dec:	00078100 	.word	0x00078100

08004df0 <power_get_clock>:
 8004df0:	b51f      	push	{r0, r1, r2, r3, r4, lr}
 8004df2:	4604      	mov	r4, r0
 8004df4:	aa04      	add	r2, sp, #16
 8004df6:	f04f 33ff 	mov.w	r3, #4294967295
 8004dfa:	f842 3d04 	str.w	r3, [r2, #-4]!
 8004dfe:	2027      	movs	r0, #39	; 0x27
 8004e00:	2101      	movs	r1, #1
 8004e02:	2300      	movs	r3, #0
 8004e04:	f7fb fa34 	bl	8000270 <svc_call>
 8004e08:	2300      	movs	r3, #0
 8004e0a:	9300      	str	r3, [sp, #0]
 8004e0c:	9803      	ldr	r0, [sp, #12]
 8004e0e:	4903      	ldr	r1, [pc, #12]	; (8004e1c <power_get_clock+0x2c>)
 8004e10:	4622      	mov	r2, r4
 8004e12:	f7ff fe70 	bl	8004af6 <get>
 8004e16:	b004      	add	sp, #16
 8004e18:	bd10      	pop	{r4, pc}
 8004e1a:	bf00      	nop
 8004e1c:	00038101 	.word	0x00038101

08004e20 <power_get_core_clock>:
 8004e20:	2000      	movs	r0, #0
 8004e22:	f7ff bfe5 	b.w	8004df0 <power_get_clock>

08004e26 <stream_create>:
 8004e26:	b507      	push	{r0, r1, r2, lr}
 8004e28:	2300      	movs	r3, #0
 8004e2a:	a902      	add	r1, sp, #8
 8004e2c:	4602      	mov	r2, r0
 8004e2e:	f841 3d04 	str.w	r3, [r1, #-4]!
 8004e32:	2017      	movs	r0, #23
 8004e34:	f7fb fa1c 	bl	8000270 <svc_call>
 8004e38:	9801      	ldr	r0, [sp, #4]
 8004e3a:	b003      	add	sp, #12
 8004e3c:	f85d fb04 	ldr.w	pc, [sp], #4

08004e40 <stream_open>:
 8004e40:	b507      	push	{r0, r1, r2, lr}
 8004e42:	2300      	movs	r3, #0
 8004e44:	aa02      	add	r2, sp, #8
 8004e46:	4601      	mov	r1, r0
 8004e48:	f842 3d04 	str.w	r3, [r2, #-4]!
 8004e4c:	2018      	movs	r0, #24
 8004e4e:	f7fb fa0f 	bl	8000270 <svc_call>
 8004e52:	9801      	ldr	r0, [sp, #4]
 8004e54:	b003      	add	sp, #12
 8004e56:	f85d fb04 	ldr.w	pc, [sp], #4

08004e5a <stream_close>:
 8004e5a:	2200      	movs	r2, #0
 8004e5c:	4601      	mov	r1, r0
 8004e5e:	4613      	mov	r3, r2
 8004e60:	2019      	movs	r0, #25
 8004e62:	f7fb ba05 	b.w	8000270 <svc_call>

08004e66 <stream_get_size>:
 8004e66:	b507      	push	{r0, r1, r2, lr}
 8004e68:	2300      	movs	r3, #0
 8004e6a:	4601      	mov	r1, r0
 8004e6c:	aa01      	add	r2, sp, #4
 8004e6e:	201a      	movs	r0, #26
 8004e70:	f7fb f9fe 	bl	8000270 <svc_call>
 8004e74:	9801      	ldr	r0, [sp, #4]
 8004e76:	b003      	add	sp, #12
 8004e78:	f85d fb04 	ldr.w	pc, [sp], #4

08004e7c <stream_get_free>:
 8004e7c:	b507      	push	{r0, r1, r2, lr}
 8004e7e:	2300      	movs	r3, #0
 8004e80:	4601      	mov	r1, r0
 8004e82:	aa01      	add	r2, sp, #4
 8004e84:	201b      	movs	r0, #27
 8004e86:	f7fb f9f3 	bl	8000270 <svc_call>
 8004e8a:	9801      	ldr	r0, [sp, #4]
 8004e8c:	b003      	add	sp, #12
 8004e8e:	f85d fb04 	ldr.w	pc, [sp], #4

08004e92 <stream_listen>:
 8004e92:	b530      	push	{r4, r5, lr}
 8004e94:	4605      	mov	r5, r0
 8004e96:	460c      	mov	r4, r1
 8004e98:	4613      	mov	r3, r2
 8004e9a:	4629      	mov	r1, r5
 8004e9c:	4622      	mov	r2, r4
 8004e9e:	e8bd 4030 	ldmia.w	sp!, {r4, r5, lr}
 8004ea2:	201c      	movs	r0, #28
 8004ea4:	f7fb b9e4 	b.w	8000270 <svc_call>

08004ea8 <stream_stop_listen>:
 8004ea8:	2200      	movs	r2, #0
 8004eaa:	4601      	mov	r1, r0
 8004eac:	4613      	mov	r3, r2
 8004eae:	201d      	movs	r0, #29
 8004eb0:	f7fb b9de 	b.w	8000270 <svc_call>

08004eb4 <stream_write>:
 8004eb4:	b570      	push	{r4, r5, r6, lr}
 8004eb6:	460d      	mov	r5, r1
 8004eb8:	4614      	mov	r4, r2
 8004eba:	4606      	mov	r6, r0
 8004ebc:	2000      	movs	r0, #0
 8004ebe:	f7ff fe72 	bl	8004ba6 <error>
 8004ec2:	4631      	mov	r1, r6
 8004ec4:	462a      	mov	r2, r5
 8004ec6:	4623      	mov	r3, r4
 8004ec8:	201e      	movs	r0, #30
 8004eca:	f7fb f9d1 	bl	8000270 <svc_call>
 8004ece:	f7ff fe65 	bl	8004b9c <get_last_error>
 8004ed2:	fab0 f080 	clz	r0, r0
 8004ed6:	0940      	lsrs	r0, r0, #5
 8004ed8:	bd70      	pop	{r4, r5, r6, pc}

08004eda <stream_read>:
 8004eda:	b570      	push	{r4, r5, r6, lr}
 8004edc:	460d      	mov	r5, r1
 8004ede:	4614      	mov	r4, r2
 8004ee0:	4606      	mov	r6, r0
 8004ee2:	2000      	movs	r0, #0
 8004ee4:	f7ff fe5f 	bl	8004ba6 <error>
 8004ee8:	4631      	mov	r1, r6
 8004eea:	462a      	mov	r2, r5
 8004eec:	4623      	mov	r3, r4
 8004eee:	201f      	movs	r0, #31
 8004ef0:	f7fb f9be 	bl	8000270 <svc_call>
 8004ef4:	f7ff fe52 	bl	8004b9c <get_last_error>
 8004ef8:	fab0 f080 	clz	r0, r0
 8004efc:	0940      	lsrs	r0, r0, #5
 8004efe:	bd70      	pop	{r4, r5, r6, pc}

08004f00 <stream_flush>:
 8004f00:	2200      	movs	r2, #0
 8004f02:	4601      	mov	r1, r0
 8004f04:	4613      	mov	r3, r2
 8004f06:	2022      	movs	r0, #34	; 0x22
 8004f08:	f7fb b9b2 	b.w	8000270 <svc_call>

08004f0c <stream_destroy>:
 8004f0c:	2200      	movs	r2, #0
 8004f0e:	4601      	mov	r1, r0
 8004f10:	4613      	mov	r3, r2
 8004f12:	2023      	movs	r0, #35	; 0x23
 8004f14:	f7fb b9ac 	b.w	8000270 <svc_call>

08004f18 <object_get.constprop.0>:
 8004f18:	b507      	push	{r0, r1, r2, lr}
 8004f1a:	f04f 33ff 	mov.w	r3, #4294967295
 8004f1e:	aa02      	add	r2, sp, #8
 8004f20:	f842 3d04 	str.w	r3, [r2, #-4]!
 8004f24:	2027      	movs	r0, #39	; 0x27
 8004f26:	2101      	movs	r1, #1
 8004f28:	2300      	movs	r3, #0
 8004f2a:	f7fb f9a1 	bl	8000270 <svc_call>
 8004f2e:	9801      	ldr	r0, [sp, #4]
 8004f30:	b003      	add	sp, #12
 8004f32:	f85d fb04 	ldr.w	pc, [sp], #4
 8004f36:	0000      	movs	r0, r0

08004f38 <pin_enable>:
 8004f38:	b573      	push	{r0, r1, r4, r5, r6, lr}
 8004f3a:	460c      	mov	r4, r1
 8004f3c:	4616      	mov	r6, r2
 8004f3e:	4605      	mov	r5, r0
 8004f40:	f7ff ffea 	bl	8004f18 <object_get.constprop.0>
 8004f44:	9600      	str	r6, [sp, #0]
 8004f46:	4903      	ldr	r1, [pc, #12]	; (8004f54 <pin_enable+0x1c>)
 8004f48:	462a      	mov	r2, r5
 8004f4a:	4623      	mov	r3, r4
 8004f4c:	f7ff fdc6 	bl	8004adc <ack>
 8004f50:	b002      	add	sp, #8
 8004f52:	bd70      	pop	{r4, r5, r6, pc}
 8004f54:	00018008 	.word	0x00018008

08004f58 <object_get.constprop.0>:
 8004f58:	b507      	push	{r0, r1, r2, lr}
 8004f5a:	f04f 33ff 	mov.w	r3, #4294967295
 8004f5e:	aa02      	add	r2, sp, #8
 8004f60:	f842 3d04 	str.w	r3, [r2, #-4]!
 8004f64:	2027      	movs	r0, #39	; 0x27
 8004f66:	2101      	movs	r1, #1
 8004f68:	2300      	movs	r3, #0
 8004f6a:	f7fb f981 	bl	8000270 <svc_call>
 8004f6e:	9801      	ldr	r0, [sp, #4]
 8004f70:	b003      	add	sp, #12
 8004f72:	f85d fb04 	ldr.w	pc, [sp], #4
 8004f76:	0000      	movs	r0, r0

08004f78 <htimer_open>:
 8004f78:	b537      	push	{r0, r1, r2, r4, r5, lr}
 8004f7a:	460c      	mov	r4, r1
 8004f7c:	4605      	mov	r5, r0
 8004f7e:	f7ff ffeb 	bl	8004f58 <object_get.constprop.0>
 8004f82:	2300      	movs	r3, #0
 8004f84:	9300      	str	r3, [sp, #0]
 8004f86:	4904      	ldr	r1, [pc, #16]	; (8004f98 <htimer_open+0x20>)
 8004f88:	462a      	mov	r2, r5
 8004f8a:	4623      	mov	r3, r4
 8004f8c:	f7ff fdda 	bl	8004b44 <get_size>
 8004f90:	43c0      	mvns	r0, r0
 8004f92:	0fc0      	lsrs	r0, r0, #31
 8004f94:	b003      	add	sp, #12
 8004f96:	bd30      	pop	{r4, r5, pc}
 8004f98:	00048008 	.word	0x00048008

08004f9c <htimer_start>:
 8004f9c:	b573      	push	{r0, r1, r4, r5, r6, lr}
 8004f9e:	460c      	mov	r4, r1
 8004fa0:	4616      	mov	r6, r2
 8004fa2:	4605      	mov	r5, r0
 8004fa4:	f7ff ffd8 	bl	8004f58 <object_get.constprop.0>
 8004fa8:	9600      	str	r6, [sp, #0]
 8004faa:	4903      	ldr	r1, [pc, #12]	; (8004fb8 <htimer_start+0x1c>)
 8004fac:	462a      	mov	r2, r5
 8004fae:	4623      	mov	r3, r4
 8004fb0:	f7ff fd94 	bl	8004adc <ack>
 8004fb4:	b002      	add	sp, #8
 8004fb6:	bd70      	pop	{r4, r5, r6, pc}
 8004fb8:	00048100 	.word	0x00048100

08004fbc <htimer_setup_channel>:
 8004fbc:	b5f7      	push	{r0, r1, r2, r4, r5, r6, r7, lr}
 8004fbe:	460c      	mov	r4, r1
 8004fc0:	4615      	mov	r5, r2
 8004fc2:	461f      	mov	r7, r3
 8004fc4:	4606      	mov	r6, r0
 8004fc6:	f7ff ffc7 	bl	8004f58 <object_get.constprop.0>
 8004fca:	9700      	str	r7, [sp, #0]
 8004fcc:	4903      	ldr	r1, [pc, #12]	; (8004fdc <htimer_setup_channel+0x20>)
 8004fce:	4632      	mov	r2, r6
 8004fd0:	ea44 2305 	orr.w	r3, r4, r5, lsl #8
 8004fd4:	f7ff fd82 	bl	8004adc <ack>
 8004fd8:	b003      	add	sp, #12
 8004fda:	bdf0      	pop	{r4, r5, r6, r7, pc}
 8004fdc:	00048102 	.word	0x00048102

08004fe0 <app>:
 8004fe0:	b530      	push	{r4, r5, lr}
 8004fe2:	482f      	ldr	r0, [pc, #188]	; (80050a0 <app+0xc0>)
 8004fe4:	b091      	sub	sp, #68	; 0x44
 8004fe6:	f7ff fdc3 	bl	8004b70 <process_create>
 8004fea:	2207      	movs	r2, #7
 8004fec:	2009      	movs	r0, #9
 8004fee:	2102      	movs	r1, #2
 8004ff0:	f7ff ffa2 	bl	8004f38 <pin_enable>
 8004ff4:	2102      	movs	r1, #2
 8004ff6:	2000      	movs	r0, #0
 8004ff8:	f7ff fed2 	bl	8004da0 <uart_open>
 8004ffc:	f44f 33e1 	mov.w	r3, #115200	; 0x1c200
 8005000:	9305      	str	r3, [sp, #20]
 8005002:	2308      	movs	r3, #8
 8005004:	f88d 3018 	strb.w	r3, [sp, #24]
 8005008:	234e      	movs	r3, #78	; 0x4e
 800500a:	a905      	add	r1, sp, #20
 800500c:	f88d 3019 	strb.w	r3, [sp, #25]
 8005010:	2000      	movs	r0, #0
 8005012:	2301      	movs	r3, #1
 8005014:	f88d 301a 	strb.w	r3, [sp, #26]
 8005018:	f7ff fed6 	bl	8004dc8 <uart_set_baudrate>
 800501c:	2000      	movs	r0, #0
 800501e:	f7ff fe9b 	bl	8004d58 <uart_setup_printk>
 8005022:	2000      	movs	r0, #0
 8005024:	f7ff fea6 	bl	8004d74 <uart_setup_stdout>
 8005028:	ac10      	add	r4, sp, #64	; 0x40
 800502a:	f04f 33ff 	mov.w	r3, #4294967295
 800502e:	f844 3d40 	str.w	r3, [r4, #-64]!
 8005032:	2100      	movs	r1, #0
 8005034:	2027      	movs	r0, #39	; 0x27
 8005036:	460b      	mov	r3, r1
 8005038:	4622      	mov	r2, r4
 800503a:	f7fb f919 	bl	8000270 <svc_call>
 800503e:	9800      	ldr	r0, [sp, #0]
 8005040:	1c43      	adds	r3, r0, #1
 8005042:	d005      	beq.n	8005050 <app+0x70>
 8005044:	f04f 5300 	mov.w	r3, #536870912	; 0x20000000
 8005048:	681d      	ldr	r5, [r3, #0]
 800504a:	f7ff fef9 	bl	8004e40 <stream_open>
 800504e:	6128      	str	r0, [r5, #16]
 8005050:	f7ff fee6 	bl	8004e20 <power_get_core_clock>
 8005054:	4913      	ldr	r1, [pc, #76]	; (80050a4 <app+0xc4>)
 8005056:	fbb0 f1f1 	udiv	r1, r0, r1
 800505a:	4813      	ldr	r0, [pc, #76]	; (80050a8 <app+0xc8>)
 800505c:	f7ff fdde 	bl	8004c1c <printf>
 8005060:	a805      	add	r0, sp, #20
 8005062:	f000 f865 	bl	8005130 <led_init>
 8005066:	20c8      	movs	r0, #200	; 0xc8
 8005068:	f7ff fdb4 	bl	8004bd4 <sleep_ms>
 800506c:	f7ff fdc6 	bl	8004bfc <process_info>
 8005070:	4620      	mov	r0, r4
 8005072:	f7ff fcfb 	bl	8004a6c <ipc_read>
 8005076:	f8bd 3006 	ldrh.w	r3, [sp, #6]
 800507a:	f3c3 030d 	ubfx	r3, r3, #0, #14
 800507e:	2b13      	cmp	r3, #19
 8005080:	d006      	beq.n	8005090 <app+0xb0>
 8005082:	2b22      	cmp	r3, #34	; 0x22
 8005084:	d008      	beq.n	8005098 <app+0xb8>
 8005086:	f06f 0001 	mvn.w	r0, #1
 800508a:	f7ff fd8c 	bl	8004ba6 <error>
 800508e:	e003      	b.n	8005098 <app+0xb8>
 8005090:	a805      	add	r0, sp, #20
 8005092:	4621      	mov	r1, r4
 8005094:	f000 f8a4 	bl	80051e0 <comm_request>
 8005098:	4620      	mov	r0, r4
 800509a:	f7ff fcce 	bl	8004a3a <ipc_write>
 800509e:	e7e7      	b.n	8005070 <app+0x90>
 80050a0:	08005d30 	.word	0x08005d30
 80050a4:	000f4240 	.word	0x000f4240
 80050a8:	08005db4 	.word	0x08005db4

080050ac <led_toggle>:
 80050ac:	b570      	push	{r4, r5, r6, lr}
 80050ae:	f810 3031 	ldrb.w	r3, [r0, r1, lsl #3]
 80050b2:	eb00 06c1 	add.w	r6, r0, r1, lsl #3
 80050b6:	4604      	mov	r4, r0
 80050b8:	460d      	mov	r5, r1
 80050ba:	78b0      	ldrb	r0, [r6, #2]
 80050bc:	b113      	cbz	r3, 80050c4 <led_toggle+0x18>
 80050be:	f7fd ff83 	bl	8002fc8 <gpio_reset_pin>
 80050c2:	e001      	b.n	80050c8 <led_toggle+0x1c>
 80050c4:	f7fd ff74 	bl	8002fb0 <gpio_set_pin>
 80050c8:	f814 3035 	ldrb.w	r3, [r4, r5, lsl #3]
 80050cc:	f083 0301 	eor.w	r3, r3, #1
 80050d0:	f804 3035 	strb.w	r3, [r4, r5, lsl #3]
 80050d4:	6873      	ldr	r3, [r6, #4]
 80050d6:	2b00      	cmp	r3, #0
 80050d8:	bfc4      	itt	gt
 80050da:	f103 33ff 	addgt.w	r3, r3, #4294967295
 80050de:	6073      	strgt	r3, [r6, #4]
 80050e0:	bd70      	pop	{r4, r5, r6, pc}
 80050e2:	0000      	movs	r0, r0

080050e4 <led_irq>:
 80050e4:	b570      	push	{r4, r5, r6, lr}
 80050e6:	460e      	mov	r6, r1
 80050e8:	460c      	mov	r4, r1
 80050ea:	2500      	movs	r5, #0
 80050ec:	7863      	ldrb	r3, [r4, #1]
 80050ee:	b2e9      	uxtb	r1, r5
 80050f0:	2b02      	cmp	r3, #2
 80050f2:	d111      	bne.n	8005118 <led_irq+0x34>
 80050f4:	6863      	ldr	r3, [r4, #4]
 80050f6:	2b00      	cmp	r3, #0
 80050f8:	dd03      	ble.n	8005102 <led_irq+0x1e>
 80050fa:	4630      	mov	r0, r6
 80050fc:	f7ff ffd6 	bl	80050ac <led_toggle>
 8005100:	e00a      	b.n	8005118 <led_irq+0x34>
 8005102:	2301      	movs	r3, #1
 8005104:	7063      	strb	r3, [r4, #1]
 8005106:	4b09      	ldr	r3, [pc, #36]	; (800512c <led_irq+0x48>)
 8005108:	681a      	ldr	r2, [r3, #0]
 800510a:	f022 0201 	bic.w	r2, r2, #1
 800510e:	601a      	str	r2, [r3, #0]
 8005110:	691a      	ldr	r2, [r3, #16]
 8005112:	f022 0201 	bic.w	r2, r2, #1
 8005116:	611a      	str	r2, [r3, #16]
 8005118:	3408      	adds	r4, #8
 800511a:	b90d      	cbnz	r5, 8005120 <led_irq+0x3c>
 800511c:	2501      	movs	r5, #1
 800511e:	e7e5      	b.n	80050ec <led_irq+0x8>
 8005120:	4a02      	ldr	r2, [pc, #8]	; (800512c <led_irq+0x48>)
 8005122:	6913      	ldr	r3, [r2, #16]
 8005124:	f023 0301 	bic.w	r3, r3, #1
 8005128:	6113      	str	r3, [r2, #16]
 800512a:	bd70      	pop	{r4, r5, r6, pc}
 800512c:	40000400 	.word	0x40000400

08005130 <led_init>:
 8005130:	b570      	push	{r4, r5, r6, lr}
 8005132:	4604      	mov	r4, r0
 8005134:	2500      	movs	r5, #0
 8005136:	2311      	movs	r3, #17
 8005138:	2010      	movs	r0, #16
 800513a:	f884 3026 	strb.w	r3, [r4, #38]	; 0x26
 800513e:	4629      	mov	r1, r5
 8005140:	77a0      	strb	r0, [r4, #30]
 8005142:	7725      	strb	r5, [r4, #28]
 8005144:	7765      	strb	r5, [r4, #29]
 8005146:	f7fd ff22 	bl	8002f8e <gpio_enable_pin>
 800514a:	7fa0      	ldrb	r0, [r4, #30]
 800514c:	f7fd ff3c 	bl	8002fc8 <gpio_reset_pin>
 8005150:	4629      	mov	r1, r5
 8005152:	f894 0026 	ldrb.w	r0, [r4, #38]	; 0x26
 8005156:	f884 5024 	strb.w	r5, [r4, #36]	; 0x24
 800515a:	f884 5025 	strb.w	r5, [r4, #37]	; 0x25
 800515e:	f7fd ff16 	bl	8002f8e <gpio_enable_pin>
 8005162:	f894 0026 	ldrb.w	r0, [r4, #38]	; 0x26
 8005166:	f7fd ff2f 	bl	8002fc8 <gpio_reset_pin>
 800516a:	2104      	movs	r1, #4
 800516c:	2001      	movs	r0, #1
 800516e:	f7ff ff03 	bl	8004f78 <htimer_open>
 8005172:	4629      	mov	r1, r5
 8005174:	462a      	mov	r2, r5
 8005176:	462b      	mov	r3, r5
 8005178:	2001      	movs	r0, #1
 800517a:	f7ff ff1f 	bl	8004fbc <htimer_setup_channel>
 800517e:	f104 031c 	add.w	r3, r4, #28
 8005182:	200a      	movs	r0, #10
 8005184:	211d      	movs	r1, #29
 8005186:	4a02      	ldr	r2, [pc, #8]	; (8005190 <led_init+0x60>)
 8005188:	e8bd 4070 	ldmia.w	sp!, {r4, r5, r6, lr}
 800518c:	f7fb b870 	b.w	8000270 <svc_call>
 8005190:	080050e5 	.word	0x080050e5

08005194 <led_mode>:
 8005194:	2902      	cmp	r1, #2
 8005196:	b538      	push	{r3, r4, r5, lr}
 8005198:	4615      	mov	r5, r2
 800519a:	d81f      	bhi.n	80051dc <led_mode+0x48>
 800519c:	eb00 04c1 	add.w	r4, r0, r1, lsl #3
 80051a0:	7f63      	ldrb	r3, [r4, #29]
 80051a2:	4293      	cmp	r3, r2
 80051a4:	d01a      	beq.n	80051dc <led_mode+0x48>
 80051a6:	2a01      	cmp	r2, #1
 80051a8:	d013      	beq.n	80051d2 <led_mode+0x3e>
 80051aa:	d30c      	bcc.n	80051c6 <led_mode+0x32>
 80051ac:	2a02      	cmp	r2, #2
 80051ae:	d114      	bne.n	80051da <led_mode+0x46>
 80051b0:	2306      	movs	r3, #6
 80051b2:	6223      	str	r3, [r4, #32]
 80051b4:	301c      	adds	r0, #28
 80051b6:	f7ff ff79 	bl	80050ac <led_toggle>
 80051ba:	2001      	movs	r0, #1
 80051bc:	2100      	movs	r1, #0
 80051be:	2219      	movs	r2, #25
 80051c0:	f7ff feec 	bl	8004f9c <htimer_start>
 80051c4:	e009      	b.n	80051da <led_mode+0x46>
 80051c6:	7fa0      	ldrb	r0, [r4, #30]
 80051c8:	f7fd fefe 	bl	8002fc8 <gpio_reset_pin>
 80051cc:	2300      	movs	r3, #0
 80051ce:	7723      	strb	r3, [r4, #28]
 80051d0:	e003      	b.n	80051da <led_mode+0x46>
 80051d2:	7fa0      	ldrb	r0, [r4, #30]
 80051d4:	f7fd feec 	bl	8002fb0 <gpio_set_pin>
 80051d8:	7725      	strb	r5, [r4, #28]
 80051da:	7765      	strb	r5, [r4, #29]
 80051dc:	bd38      	pop	{r3, r4, r5, pc}
 80051de:	0000      	movs	r0, r0

080051e0 <comm_request>:
 80051e0:	b57f      	push	{r0, r1, r2, r3, r4, r5, r6, lr}
 80051e2:	684b      	ldr	r3, [r1, #4]
 80051e4:	4604      	mov	r4, r0
 80051e6:	f3c3 030e 	ubfx	r3, r3, #0, #15
 80051ea:	2b01      	cmp	r3, #1
 80051ec:	d049      	beq.n	8005282 <comm_request+0xa2>
 80051ee:	f5b3 7f80 	cmp.w	r3, #256	; 0x100
 80051f2:	d163      	bne.n	80052bc <comm_request+0xdc>
 80051f4:	7a0b      	ldrb	r3, [r1, #8]
 80051f6:	2b03      	cmp	r3, #3
 80051f8:	d864      	bhi.n	80052c4 <comm_request+0xe4>
 80051fa:	e8df f003 	tbb	[pc, r3]
 80051fe:	2929      	.short	0x2929
 8005200:	0202      	.short	0x0202
 8005202:	2500      	movs	r5, #0
 8005204:	4830      	ldr	r0, [pc, #192]	; (80052c8 <comm_request+0xe8>)
 8005206:	f7ff fd09 	bl	8004c1c <printf>
 800520a:	4930      	ldr	r1, [pc, #192]	; (80052cc <comm_request+0xec>)
 800520c:	462a      	mov	r2, r5
 800520e:	462b      	mov	r3, r5
 8005210:	9500      	str	r5, [sp, #0]
 8005212:	6860      	ldr	r0, [r4, #4]
 8005214:	f7ff fc82 	bl	8004b1c <get_handle>
 8005218:	492d      	ldr	r1, [pc, #180]	; (80052d0 <comm_request+0xf0>)
 800521a:	462a      	mov	r2, r5
 800521c:	462b      	mov	r3, r5
 800521e:	4606      	mov	r6, r0
 8005220:	9500      	str	r5, [sp, #0]
 8005222:	6860      	ldr	r0, [r4, #4]
 8005224:	f7ff fc7a 	bl	8004b1c <get_handle>
 8005228:	6160      	str	r0, [r4, #20]
 800522a:	4630      	mov	r0, r6
 800522c:	f7ff fe08 	bl	8004e40 <stream_open>
 8005230:	60e0      	str	r0, [r4, #12]
 8005232:	6960      	ldr	r0, [r4, #20]
 8005234:	f7ff fe04 	bl	8004e40 <stream_open>
 8005238:	2601      	movs	r6, #1
 800523a:	6120      	str	r0, [r4, #16]
 800523c:	4629      	mov	r1, r5
 800523e:	6960      	ldr	r0, [r4, #20]
 8005240:	2213      	movs	r2, #19
 8005242:	7626      	strb	r6, [r4, #24]
 8005244:	f7ff fe25 	bl	8004e92 <stream_listen>
 8005248:	4620      	mov	r0, r4
 800524a:	4629      	mov	r1, r5
 800524c:	4632      	mov	r2, r6
 800524e:	e032      	b.n	80052b6 <comm_request+0xd6>
 8005250:	7e03      	ldrb	r3, [r0, #24]
 8005252:	2b00      	cmp	r3, #0
 8005254:	d036      	beq.n	80052c4 <comm_request+0xe4>
 8005256:	481f      	ldr	r0, [pc, #124]	; (80052d4 <comm_request+0xf4>)
 8005258:	f7ff fce0 	bl	8004c1c <printf>
 800525c:	6960      	ldr	r0, [r4, #20]
 800525e:	f7ff fe23 	bl	8004ea8 <stream_stop_listen>
 8005262:	68e0      	ldr	r0, [r4, #12]
 8005264:	f7ff fdf9 	bl	8004e5a <stream_close>
 8005268:	6920      	ldr	r0, [r4, #16]
 800526a:	f7ff fdf6 	bl	8004e5a <stream_close>
 800526e:	f04f 33ff 	mov.w	r3, #4294967295
 8005272:	2100      	movs	r1, #0
 8005274:	6163      	str	r3, [r4, #20]
 8005276:	60e3      	str	r3, [r4, #12]
 8005278:	6123      	str	r3, [r4, #16]
 800527a:	7621      	strb	r1, [r4, #24]
 800527c:	4620      	mov	r0, r4
 800527e:	460a      	mov	r2, r1
 8005280:	e019      	b.n	80052b6 <comm_request+0xd6>
 8005282:	690e      	ldr	r6, [r1, #16]
 8005284:	2500      	movs	r5, #0
 8005286:	42b5      	cmp	r5, r6
 8005288:	d00d      	beq.n	80052a6 <comm_request+0xc6>
 800528a:	f10d 010f 	add.w	r1, sp, #15
 800528e:	2201      	movs	r2, #1
 8005290:	6920      	ldr	r0, [r4, #16]
 8005292:	f7ff fe22 	bl	8004eda <stream_read>
 8005296:	68e0      	ldr	r0, [r4, #12]
 8005298:	f10d 010f 	add.w	r1, sp, #15
 800529c:	2201      	movs	r2, #1
 800529e:	f7ff fe09 	bl	8004eb4 <stream_write>
 80052a2:	3501      	adds	r5, #1
 80052a4:	e7ef      	b.n	8005286 <comm_request+0xa6>
 80052a6:	6960      	ldr	r0, [r4, #20]
 80052a8:	2100      	movs	r1, #0
 80052aa:	2213      	movs	r2, #19
 80052ac:	f7ff fdf1 	bl	8004e92 <stream_listen>
 80052b0:	4620      	mov	r0, r4
 80052b2:	2100      	movs	r1, #0
 80052b4:	2202      	movs	r2, #2
 80052b6:	f7ff ff6d 	bl	8005194 <led_mode>
 80052ba:	e003      	b.n	80052c4 <comm_request+0xe4>
 80052bc:	f06f 0001 	mvn.w	r0, #1
 80052c0:	f7ff fc71 	bl	8004ba6 <error>
 80052c4:	b004      	add	sp, #16
 80052c6:	bd70      	pop	{r4, r5, r6, pc}
 80052c8:	08005de5 	.word	0x08005de5
 80052cc:	0014800b 	.word	0x0014800b
 80052d0:	0014800a 	.word	0x0014800a
 80052d4:	08005df2 	.word	0x08005df2

080052d8 <memcpy>:
 80052d8:	4684      	mov	ip, r0
 80052da:	ea41 0300 	orr.w	r3, r1, r0
 80052de:	f013 0303 	ands.w	r3, r3, #3
 80052e2:	d149      	bne.n	8005378 <memcpy+0xa0>
 80052e4:	3a40      	subs	r2, #64	; 0x40
 80052e6:	d323      	bcc.n	8005330 <memcpy+0x58>
 80052e8:	680b      	ldr	r3, [r1, #0]
 80052ea:	6003      	str	r3, [r0, #0]
 80052ec:	684b      	ldr	r3, [r1, #4]
 80052ee:	6043      	str	r3, [r0, #4]
 80052f0:	688b      	ldr	r3, [r1, #8]
 80052f2:	6083      	str	r3, [r0, #8]
 80052f4:	68cb      	ldr	r3, [r1, #12]
 80052f6:	60c3      	str	r3, [r0, #12]
 80052f8:	690b      	ldr	r3, [r1, #16]
 80052fa:	6103      	str	r3, [r0, #16]
 80052fc:	694b      	ldr	r3, [r1, #20]
 80052fe:	6143      	str	r3, [r0, #20]
 8005300:	698b      	ldr	r3, [r1, #24]
 8005302:	6183      	str	r3, [r0, #24]
 8005304:	69cb      	ldr	r3, [r1, #28]
 8005306:	61c3      	str	r3, [r0, #28]
 8005308:	6a0b      	ldr	r3, [r1, #32]
 800530a:	6203      	str	r3, [r0, #32]
 800530c:	6a4b      	ldr	r3, [r1, #36]	; 0x24
 800530e:	6243      	str	r3, [r0, #36]	; 0x24
 8005310:	6a8b      	ldr	r3, [r1, #40]	; 0x28
 8005312:	6283      	str	r3, [r0, #40]	; 0x28
 8005314:	6acb      	ldr	r3, [r1, #44]	; 0x2c
 8005316:	62c3      	str	r3, [r0, #44]	; 0x2c
 8005318:	6b0b      	ldr	r3, [r1, #48]	; 0x30
 800531a:	6303      	str	r3, [r0, #48]	; 0x30
 800531c:	6b4b      	ldr	r3, [r1, #52]	; 0x34
 800531e:	6343      	str	r3, [r0, #52]	; 0x34
 8005320:	6b8b      	ldr	r3, [r1, #56]	; 0x38
 8005322:	6383      	str	r3, [r0, #56]	; 0x38
 8005324:	6bcb      	ldr	r3, [r1, #60]	; 0x3c
 8005326:	63c3      	str	r3, [r0, #60]	; 0x3c
 8005328:	3040      	adds	r0, #64	; 0x40
 800532a:	3140      	adds	r1, #64	; 0x40
 800532c:	3a40      	subs	r2, #64	; 0x40
 800532e:	d2db      	bcs.n	80052e8 <memcpy+0x10>
 8005330:	3230      	adds	r2, #48	; 0x30
 8005332:	d30b      	bcc.n	800534c <memcpy+0x74>
 8005334:	680b      	ldr	r3, [r1, #0]
 8005336:	6003      	str	r3, [r0, #0]
 8005338:	684b      	ldr	r3, [r1, #4]
 800533a:	6043      	str	r3, [r0, #4]
 800533c:	688b      	ldr	r3, [r1, #8]
 800533e:	6083      	str	r3, [r0, #8]
 8005340:	68cb      	ldr	r3, [r1, #12]
 8005342:	60c3      	str	r3, [r0, #12]
 8005344:	3010      	adds	r0, #16
 8005346:	3110      	adds	r1, #16
 8005348:	3a10      	subs	r2, #16
 800534a:	d2f3      	bcs.n	8005334 <memcpy+0x5c>
 800534c:	320c      	adds	r2, #12
 800534e:	d305      	bcc.n	800535c <memcpy+0x84>
 8005350:	f851 3b04 	ldr.w	r3, [r1], #4
 8005354:	f840 3b04 	str.w	r3, [r0], #4
 8005358:	3a04      	subs	r2, #4
 800535a:	d2f9      	bcs.n	8005350 <memcpy+0x78>
 800535c:	3204      	adds	r2, #4
 800535e:	d008      	beq.n	8005372 <memcpy+0x9a>
 8005360:	07d2      	lsls	r2, r2, #31
 8005362:	bf1c      	itt	ne
 8005364:	f811 3b01 	ldrbne.w	r3, [r1], #1
 8005368:	f800 3b01 	strbne.w	r3, [r0], #1
 800536c:	d301      	bcc.n	8005372 <memcpy+0x9a>
 800536e:	880b      	ldrh	r3, [r1, #0]
 8005370:	8003      	strh	r3, [r0, #0]
 8005372:	4660      	mov	r0, ip
 8005374:	4770      	bx	lr
 8005376:	bf00      	nop
 8005378:	2a08      	cmp	r2, #8
 800537a:	d313      	bcc.n	80053a4 <memcpy+0xcc>
 800537c:	078b      	lsls	r3, r1, #30
 800537e:	d0b1      	beq.n	80052e4 <memcpy+0xc>
 8005380:	f010 0303 	ands.w	r3, r0, #3
 8005384:	d0ae      	beq.n	80052e4 <memcpy+0xc>
 8005386:	f1c3 0304 	rsb	r3, r3, #4
 800538a:	1ad2      	subs	r2, r2, r3
 800538c:	07db      	lsls	r3, r3, #31
 800538e:	bf1c      	itt	ne
 8005390:	f811 3b01 	ldrbne.w	r3, [r1], #1
 8005394:	f800 3b01 	strbne.w	r3, [r0], #1
 8005398:	d3a4      	bcc.n	80052e4 <memcpy+0xc>
 800539a:	f831 3b02 	ldrh.w	r3, [r1], #2
 800539e:	f820 3b02 	strh.w	r3, [r0], #2
 80053a2:	e79f      	b.n	80052e4 <memcpy+0xc>
 80053a4:	3a04      	subs	r2, #4
 80053a6:	d3d9      	bcc.n	800535c <memcpy+0x84>
 80053a8:	3a01      	subs	r2, #1
 80053aa:	f811 3b01 	ldrb.w	r3, [r1], #1
 80053ae:	f800 3b01 	strb.w	r3, [r0], #1
 80053b2:	d2f9      	bcs.n	80053a8 <memcpy+0xd0>
 80053b4:	780b      	ldrb	r3, [r1, #0]
 80053b6:	7003      	strb	r3, [r0, #0]
 80053b8:	784b      	ldrb	r3, [r1, #1]
 80053ba:	7043      	strb	r3, [r0, #1]
 80053bc:	788b      	ldrb	r3, [r1, #2]
 80053be:	7083      	strb	r3, [r0, #2]
 80053c0:	4660      	mov	r0, ip
 80053c2:	4770      	bx	lr

080053c4 <memmove>:
 80053c4:	4288      	cmp	r0, r1
 80053c6:	b5f0      	push	{r4, r5, r6, r7, lr}
 80053c8:	d90d      	bls.n	80053e6 <memmove+0x22>
 80053ca:	188b      	adds	r3, r1, r2
 80053cc:	4298      	cmp	r0, r3
 80053ce:	d20a      	bcs.n	80053e6 <memmove+0x22>
 80053d0:	1881      	adds	r1, r0, r2
 80053d2:	2a00      	cmp	r2, #0
 80053d4:	d054      	beq.n	8005480 <memmove+0xbc>
 80053d6:	1a9a      	subs	r2, r3, r2
 80053d8:	f813 4d01 	ldrb.w	r4, [r3, #-1]!
 80053dc:	4293      	cmp	r3, r2
 80053de:	f801 4d01 	strb.w	r4, [r1, #-1]!
 80053e2:	d1f9      	bne.n	80053d8 <memmove+0x14>
 80053e4:	bdf0      	pop	{r4, r5, r6, r7, pc}
 80053e6:	2a0f      	cmp	r2, #15
 80053e8:	d948      	bls.n	800547c <memmove+0xb8>
 80053ea:	ea40 0301 	orr.w	r3, r0, r1
 80053ee:	079b      	lsls	r3, r3, #30
 80053f0:	d147      	bne.n	8005482 <memmove+0xbe>
 80053f2:	4615      	mov	r5, r2
 80053f4:	f100 0410 	add.w	r4, r0, #16
 80053f8:	f101 0310 	add.w	r3, r1, #16
 80053fc:	f853 6c10 	ldr.w	r6, [r3, #-16]
 8005400:	3d10      	subs	r5, #16
 8005402:	f844 6c10 	str.w	r6, [r4, #-16]
 8005406:	f853 6c0c 	ldr.w	r6, [r3, #-12]
 800540a:	2d0f      	cmp	r5, #15
 800540c:	f844 6c0c 	str.w	r6, [r4, #-12]
 8005410:	f853 6c08 	ldr.w	r6, [r3, #-8]
 8005414:	f104 0410 	add.w	r4, r4, #16
 8005418:	f844 6c18 	str.w	r6, [r4, #-24]
 800541c:	f853 6c04 	ldr.w	r6, [r3, #-4]
 8005420:	f103 0310 	add.w	r3, r3, #16
 8005424:	f844 6c14 	str.w	r6, [r4, #-20]
 8005428:	d8e8      	bhi.n	80053fc <memmove+0x38>
 800542a:	f1a2 0310 	sub.w	r3, r2, #16
 800542e:	f023 030f 	bic.w	r3, r3, #15
 8005432:	f002 0e0f 	and.w	lr, r2, #15
 8005436:	3310      	adds	r3, #16
 8005438:	f1be 0f03 	cmp.w	lr, #3
 800543c:	4419      	add	r1, r3
 800543e:	4403      	add	r3, r0
 8005440:	d921      	bls.n	8005486 <memmove+0xc2>
 8005442:	460e      	mov	r6, r1
 8005444:	4674      	mov	r4, lr
 8005446:	1f1d      	subs	r5, r3, #4
 8005448:	f856 7b04 	ldr.w	r7, [r6], #4
 800544c:	3c04      	subs	r4, #4
 800544e:	2c03      	cmp	r4, #3
 8005450:	f845 7f04 	str.w	r7, [r5, #4]!
 8005454:	d8f8      	bhi.n	8005448 <memmove+0x84>
 8005456:	f1ae 0404 	sub.w	r4, lr, #4
 800545a:	f024 0403 	bic.w	r4, r4, #3
 800545e:	3404      	adds	r4, #4
 8005460:	4423      	add	r3, r4
 8005462:	4421      	add	r1, r4
 8005464:	f002 0203 	and.w	r2, r2, #3
 8005468:	b152      	cbz	r2, 8005480 <memmove+0xbc>
 800546a:	3b01      	subs	r3, #1
 800546c:	440a      	add	r2, r1
 800546e:	f811 4b01 	ldrb.w	r4, [r1], #1
 8005472:	4291      	cmp	r1, r2
 8005474:	f803 4f01 	strb.w	r4, [r3, #1]!
 8005478:	d1f9      	bne.n	800546e <memmove+0xaa>
 800547a:	bdf0      	pop	{r4, r5, r6, r7, pc}
 800547c:	4603      	mov	r3, r0
 800547e:	e7f3      	b.n	8005468 <memmove+0xa4>
 8005480:	bdf0      	pop	{r4, r5, r6, r7, pc}
 8005482:	4603      	mov	r3, r0
 8005484:	e7f1      	b.n	800546a <memmove+0xa6>
 8005486:	4672      	mov	r2, lr
 8005488:	e7ee      	b.n	8005468 <memmove+0xa4>
 800548a:	bf00      	nop

0800548c <memset>:
 800548c:	b470      	push	{r4, r5, r6}
 800548e:	0784      	lsls	r4, r0, #30
 8005490:	d046      	beq.n	8005520 <memset+0x94>
 8005492:	1e54      	subs	r4, r2, #1
 8005494:	2a00      	cmp	r2, #0
 8005496:	d041      	beq.n	800551c <memset+0x90>
 8005498:	b2cd      	uxtb	r5, r1
 800549a:	4603      	mov	r3, r0
 800549c:	e002      	b.n	80054a4 <memset+0x18>
 800549e:	1e62      	subs	r2, r4, #1
 80054a0:	b3e4      	cbz	r4, 800551c <memset+0x90>
 80054a2:	4614      	mov	r4, r2
 80054a4:	f803 5b01 	strb.w	r5, [r3], #1
 80054a8:	079a      	lsls	r2, r3, #30
 80054aa:	d1f8      	bne.n	800549e <memset+0x12>
 80054ac:	2c03      	cmp	r4, #3
 80054ae:	d92e      	bls.n	800550e <memset+0x82>
 80054b0:	b2cd      	uxtb	r5, r1
 80054b2:	ea45 2505 	orr.w	r5, r5, r5, lsl #8
 80054b6:	2c0f      	cmp	r4, #15
 80054b8:	ea45 4505 	orr.w	r5, r5, r5, lsl #16
 80054bc:	d919      	bls.n	80054f2 <memset+0x66>
 80054be:	4626      	mov	r6, r4
 80054c0:	f103 0210 	add.w	r2, r3, #16
 80054c4:	3e10      	subs	r6, #16
 80054c6:	2e0f      	cmp	r6, #15
 80054c8:	f842 5c10 	str.w	r5, [r2, #-16]
 80054cc:	f842 5c0c 	str.w	r5, [r2, #-12]
 80054d0:	f842 5c08 	str.w	r5, [r2, #-8]
 80054d4:	f842 5c04 	str.w	r5, [r2, #-4]
 80054d8:	f102 0210 	add.w	r2, r2, #16
 80054dc:	d8f2      	bhi.n	80054c4 <memset+0x38>
 80054de:	f1a4 0210 	sub.w	r2, r4, #16
 80054e2:	f022 020f 	bic.w	r2, r2, #15
 80054e6:	f004 040f 	and.w	r4, r4, #15
 80054ea:	3210      	adds	r2, #16
 80054ec:	2c03      	cmp	r4, #3
 80054ee:	4413      	add	r3, r2
 80054f0:	d90d      	bls.n	800550e <memset+0x82>
 80054f2:	461e      	mov	r6, r3
 80054f4:	4622      	mov	r2, r4
 80054f6:	3a04      	subs	r2, #4
 80054f8:	2a03      	cmp	r2, #3
 80054fa:	f846 5b04 	str.w	r5, [r6], #4
 80054fe:	d8fa      	bhi.n	80054f6 <memset+0x6a>
 8005500:	1f22      	subs	r2, r4, #4
 8005502:	f022 0203 	bic.w	r2, r2, #3
 8005506:	3204      	adds	r2, #4
 8005508:	4413      	add	r3, r2
 800550a:	f004 0403 	and.w	r4, r4, #3
 800550e:	b12c      	cbz	r4, 800551c <memset+0x90>
 8005510:	b2c9      	uxtb	r1, r1
 8005512:	441c      	add	r4, r3
 8005514:	f803 1b01 	strb.w	r1, [r3], #1
 8005518:	42a3      	cmp	r3, r4
 800551a:	d1fb      	bne.n	8005514 <memset+0x88>
 800551c:	bc70      	pop	{r4, r5, r6}
 800551e:	4770      	bx	lr
 8005520:	4614      	mov	r4, r2
 8005522:	4603      	mov	r3, r0
 8005524:	e7c2      	b.n	80054ac <memset+0x20>
 8005526:	bf00      	nop

08005528 <strcpy>:
 8005528:	ea80 0201 	eor.w	r2, r0, r1
 800552c:	4684      	mov	ip, r0
 800552e:	f012 0f03 	tst.w	r2, #3
 8005532:	d14f      	bne.n	80055d4 <strcpy+0xac>
 8005534:	f011 0f03 	tst.w	r1, #3
 8005538:	d132      	bne.n	80055a0 <strcpy+0x78>
 800553a:	f84d 4d04 	str.w	r4, [sp, #-4]!
 800553e:	f011 0f04 	tst.w	r1, #4
 8005542:	f851 3b04 	ldr.w	r3, [r1], #4
 8005546:	d00b      	beq.n	8005560 <strcpy+0x38>
 8005548:	f1a3 3201 	sub.w	r2, r3, #16843009	; 0x1010101
 800554c:	439a      	bics	r2, r3
 800554e:	f012 3f80 	tst.w	r2, #2155905152	; 0x80808080
 8005552:	bf04      	itt	eq
 8005554:	f84c 3b04 	streq.w	r3, [ip], #4
 8005558:	f851 3b04 	ldreq.w	r3, [r1], #4
 800555c:	d116      	bne.n	800558c <strcpy+0x64>
 800555e:	bf00      	nop
 8005560:	f851 4b04 	ldr.w	r4, [r1], #4
 8005564:	f1a3 3201 	sub.w	r2, r3, #16843009	; 0x1010101
 8005568:	439a      	bics	r2, r3
 800556a:	f012 3f80 	tst.w	r2, #2155905152	; 0x80808080
 800556e:	f1a4 3201 	sub.w	r2, r4, #16843009	; 0x1010101
 8005572:	d10b      	bne.n	800558c <strcpy+0x64>
 8005574:	f84c 3b04 	str.w	r3, [ip], #4
 8005578:	43a2      	bics	r2, r4
 800557a:	f012 3f80 	tst.w	r2, #2155905152	; 0x80808080
 800557e:	bf04      	itt	eq
 8005580:	f851 3b04 	ldreq.w	r3, [r1], #4
 8005584:	f84c 4b04 	streq.w	r4, [ip], #4
 8005588:	d0ea      	beq.n	8005560 <strcpy+0x38>
 800558a:	4623      	mov	r3, r4
 800558c:	f80c 3b01 	strb.w	r3, [ip], #1
 8005590:	f013 0fff 	tst.w	r3, #255	; 0xff
 8005594:	ea4f 2333 	mov.w	r3, r3, ror #8
 8005598:	d1f8      	bne.n	800558c <strcpy+0x64>
 800559a:	f85d 4b04 	ldr.w	r4, [sp], #4
 800559e:	4770      	bx	lr
 80055a0:	f011 0f01 	tst.w	r1, #1
 80055a4:	d006      	beq.n	80055b4 <strcpy+0x8c>
 80055a6:	f811 2b01 	ldrb.w	r2, [r1], #1
 80055aa:	f80c 2b01 	strb.w	r2, [ip], #1
 80055ae:	2a00      	cmp	r2, #0
 80055b0:	bf08      	it	eq
 80055b2:	4770      	bxeq	lr
 80055b4:	f011 0f02 	tst.w	r1, #2
 80055b8:	d0bf      	beq.n	800553a <strcpy+0x12>
 80055ba:	f831 2b02 	ldrh.w	r2, [r1], #2
 80055be:	f012 0fff 	tst.w	r2, #255	; 0xff
 80055c2:	bf16      	itet	ne
 80055c4:	f82c 2b02 	strhne.w	r2, [ip], #2
 80055c8:	f88c 2000 	strbeq.w	r2, [ip]
 80055cc:	f412 4f7f 	tstne.w	r2, #65280	; 0xff00
 80055d0:	d1b3      	bne.n	800553a <strcpy+0x12>
 80055d2:	4770      	bx	lr
 80055d4:	f811 2b01 	ldrb.w	r2, [r1], #1
 80055d8:	f80c 2b01 	strb.w	r2, [ip], #1
 80055dc:	2a00      	cmp	r2, #0
 80055de:	d1f9      	bne.n	80055d4 <strcpy+0xac>
 80055e0:	4770      	bx	lr
 80055e2:	bf00      	nop

080055e4 <strlen>:
 80055e4:	f020 0103 	bic.w	r1, r0, #3
 80055e8:	f010 0003 	ands.w	r0, r0, #3
 80055ec:	f1c0 0000 	rsb	r0, r0, #0
 80055f0:	f851 3b04 	ldr.w	r3, [r1], #4
 80055f4:	f100 0c04 	add.w	ip, r0, #4
 80055f8:	ea4f 0ccc 	mov.w	ip, ip, lsl #3
 80055fc:	f06f 0200 	mvn.w	r2, #0
 8005600:	bf1c      	itt	ne
 8005602:	fa22 f20c 	lsrne.w	r2, r2, ip
 8005606:	4313      	orrne	r3, r2
 8005608:	f04f 0c01 	mov.w	ip, #1
 800560c:	ea4c 2c0c 	orr.w	ip, ip, ip, lsl #8
 8005610:	ea4c 4c0c 	orr.w	ip, ip, ip, lsl #16
 8005614:	eba3 020c 	sub.w	r2, r3, ip
 8005618:	ea22 0203 	bic.w	r2, r2, r3
 800561c:	ea12 12cc 	ands.w	r2, r2, ip, lsl #7
 8005620:	bf04      	itt	eq
 8005622:	f851 3b04 	ldreq.w	r3, [r1], #4
 8005626:	3004      	addeq	r0, #4
 8005628:	d0f4      	beq.n	8005614 <strlen+0x30>
 800562a:	f1c2 0100 	rsb	r1, r2, #0
 800562e:	ea02 0201 	and.w	r2, r2, r1
 8005632:	fab2 f282 	clz	r2, r2
 8005636:	f1c2 021f 	rsb	r2, r2, #31
 800563a:	eb00 00d2 	add.w	r0, r0, r2, lsr #3
 800563e:	4770      	bx	lr
 8005640:	44524148 	.word	0x44524148
 8005644:	55414620 	.word	0x55414620
 8005648:	203a544c 	.word	0x203a544c
 800564c:	63655600 	.word	0x63655600
 8005650:	20726f74 	.word	0x20726f74
 8005654:	6c626174 	.word	0x6c626174
 8005658:	65722065 	.word	0x65722065
 800565c:	66206461 	.word	0x66206461
 8005660:	746c7561 	.word	0x746c7561
 8005664:	20746120 	.word	0x20746120
 8005668:	302e2325 	.word	0x302e2325
 800566c:	000a7838 	.word	0x000a7838
 8005670:	20535953 	.word	0x20535953
 8005674:	6c6c6163 	.word	0x6c6c6163
 8005678:	69687720 	.word	0x69687720
 800567c:	6420656c 	.word	0x6420656c
 8005680:	62617369 	.word	0x62617369
 8005684:	2064656c 	.word	0x2064656c
 8005688:	65746e69 	.word	0x65746e69
 800568c:	70757272 	.word	0x70757272
 8005690:	61207374 	.word	0x61207374
 8005694:	23252074 	.word	0x23252074
 8005698:	7838302e 	.word	0x7838302e
 800569c:	6547000a 	.word	0x6547000a
 80056a0:	6172656e 	.word	0x6172656e
 80056a4:	6168206c 	.word	0x6168206c
 80056a8:	66206472 	.word	0x66206472
 80056ac:	746c7561 	.word	0x746c7561
 80056b0:	20746120 	.word	0x20746120
 80056b4:	302e2325 	.word	0x302e2325
 80056b8:	000a7838 	.word	0x000a7838
 80056bc:	204d454d 	.word	0x204d454d
 80056c0:	414e414d 	.word	0x414e414d
 80056c4:	203a4547 	.word	0x203a4547
 80056c8:	61745300 	.word	0x61745300
 80056cc:	6e696b63 	.word	0x6e696b63
 80056d0:	61662067 	.word	0x61662067
 80056d4:	64656c69 	.word	0x64656c69
 80056d8:	736e5500 	.word	0x736e5500
 80056dc:	6b636174 	.word	0x6b636174
 80056e0:	20676e69 	.word	0x20676e69
 80056e4:	6c696166 	.word	0x6c696166
 80056e8:	44006465 	.word	0x44006465
 80056ec:	20617461 	.word	0x20617461
 80056f0:	65636361 	.word	0x65636361
 80056f4:	76207373 	.word	0x76207373
 80056f8:	616c6f69 	.word	0x616c6f69
 80056fc:	6e6f6974 	.word	0x6e6f6974
 8005700:	736e4900 	.word	0x736e4900
 8005704:	63757274 	.word	0x63757274
 8005708:	6e6f6974 	.word	0x6e6f6974
 800570c:	63636120 	.word	0x63636120
 8005710:	20737365 	.word	0x20737365
 8005714:	6c6f6976 	.word	0x6c6f6976
 8005718:	6f697461 	.word	0x6f697461
 800571c:	6120006e 	.word	0x6120006e
 8005720:	23252074 	.word	0x23252074
 8005724:	7838302e 	.word	0x7838302e
 8005728:	63202c0a 	.word	0x63202c0a
 800572c:	656c6c61 	.word	0x656c6c61
 8005730:	23252072 	.word	0x23252072
 8005734:	7838302e 	.word	0x7838302e
 8005738:	53554200 	.word	0x53554200
 800573c:	55414620 	.word	0x55414620
 8005740:	203a544c 	.word	0x203a544c
 8005744:	61745300 	.word	0x61745300
 8005748:	6e696b63 	.word	0x6e696b63
 800574c:	61662067 	.word	0x61662067
 8005750:	64656c69 	.word	0x64656c69
 8005754:	20746120 	.word	0x20746120
 8005758:	302e2325 	.word	0x302e2325
 800575c:	000a7838 	.word	0x000a7838
 8005760:	74736e55 	.word	0x74736e55
 8005764:	696b6361 	.word	0x696b6361
 8005768:	6620676e 	.word	0x6620676e
 800576c:	656c6961 	.word	0x656c6961
 8005770:	74612064 	.word	0x74612064
 8005774:	2e232520 	.word	0x2e232520
 8005778:	0a783830 	.word	0x0a783830
 800577c:	74614400 	.word	0x74614400
 8005780:	75622061 	.word	0x75622061
 8005784:	72652073 	.word	0x72652073
 8005788:	20726f72 	.word	0x20726f72
 800578c:	25207461 	.word	0x25207461
 8005790:	38302e23 	.word	0x38302e23
 8005794:	63202c78 	.word	0x63202c78
 8005798:	656c6c61 	.word	0x656c6c61
 800579c:	23252072 	.word	0x23252072
 80057a0:	7838302e 	.word	0x7838302e
 80057a4:	6e49000a 	.word	0x6e49000a
 80057a8:	75727473 	.word	0x75727473
 80057ac:	6f697463 	.word	0x6f697463
 80057b0:	7562206e 	.word	0x7562206e
 80057b4:	72652073 	.word	0x72652073
 80057b8:	20726f72 	.word	0x20726f72
 80057bc:	25207461 	.word	0x25207461
 80057c0:	38302e23 	.word	0x38302e23
 80057c4:	63202c78 	.word	0x63202c78
 80057c8:	656c6c61 	.word	0x656c6c61
 80057cc:	23252072 	.word	0x23252072
 80057d0:	7838302e 	.word	0x7838302e
 80057d4:	5355000a 	.word	0x5355000a
 80057d8:	20454741 	.word	0x20454741
 80057dc:	4c554146 	.word	0x4c554146
 80057e0:	00203a54 	.word	0x00203a54
 80057e4:	69766944 	.word	0x69766944
 80057e8:	6e6f6973 	.word	0x6e6f6973
 80057ec:	20796220 	.word	0x20796220
 80057f0:	6f72657a 	.word	0x6f72657a
 80057f4:	616e5500 	.word	0x616e5500
 80057f8:	6e67696c 	.word	0x6e67696c
 80057fc:	61206465 	.word	0x61206465
 8005800:	73656363 	.word	0x73656363
 8005804:	6f4e0073 	.word	0x6f4e0073
 8005808:	706f6320 	.word	0x706f6320
 800580c:	65636f72 	.word	0x65636f72
 8005810:	726f7373 	.word	0x726f7373
 8005814:	756f6620 	.word	0x756f6620
 8005818:	5500646e 	.word	0x5500646e
 800581c:	6665646e 	.word	0x6665646e
 8005820:	64656e69 	.word	0x64656e69
 8005824:	736e6920 	.word	0x736e6920
 8005828:	63757274 	.word	0x63757274
 800582c:	6e6f6974 	.word	0x6e6f6974
 8005830:	766e4900 	.word	0x766e4900
 8005834:	64696c61 	.word	0x64696c61
 8005838:	61747320 	.word	0x61747320
 800583c:	00006574 	.word	0x00006574

08005840 <__KERNEL_NAME>:
 8005840:	08005852 6e72654b 70206c65 63696e61     RX..Kernel panic
 8005850:	4552000a 20534f78 2e352e30 656d0032     ..RExOS 0.5.2.me
 8005860:	79726f6d 6d756420 78302070 78383025     mory dump 0x%08x
 8005870:	2578302d 0a783830 25783000 3a783830     -0x%08x..0x%08x:
 8005880:	30250020 00205832                        .%02X .

08005888 <__KSTD_MEM_STARTUP>:
 8005888:	08000815 00000000 00000000              ............

08005894 <__KSTD_MEM>:
 8005894:	08000841 080008c9 08000995 6e726157     A...........Warn
 80058a4:	3a676e69 71726920 63657620 20726f74     ing: irq vector 
 80058b4:	73206425 20627574 6c6c6163 000a6465     %d stub called..

080058c4 <__KIRQ_STUB>:
 80058c4:	00000000 08000b09 00000000 ffffffff     ................
 80058d4:	6e726157 3a676e69 6e626120 616d726f     Warning: abnorma
 80058e4:	7270206c 7365636f 65742073 6e696d72     l process termin
 80058f4:	6f697461 25203a6e 25000a73 2e30322d     ation: %s..%-20.
 8005904:	20733032 33302500 20202064 25002020     20s .%03d     .%
 8005914:	20206234 62342500 20200020 21202020     4b  .%4b .     !
 8005924:	41442121 4547414d 21212144 20202020     !!DAMAGED!!!    
 8005934:	25200020 25286233 29643230 00202020      . %3b(%02d)   .
 8005944:	2f623325 28623325 64323025 25002029     %3b/%3b(%02d) .%
 8005954:	253a6433 2e643230 64333025 20200a00     3d:%02d.%03d..  
 8005964:	616e2020 2020656d 20202020 20202020       name          
 8005974:	69727020 7469726f 73202079 6b636174      priority  stack
 8005984:	69732020 2020657a 65737520 20202064       size   used   
 8005994:	20202020 65657266 20202020 20202020         free        
 80059a4:	69747075 000a656d 2d2d2d2d 2d2d2d2d     uptime..--------
 80059b4:	2d2d2d2d 2d2d2d2d 2d2d2d2d 2d2d2d2d     ----------------
 80059c4:	2d2d2d2d 2d2d2d2d 2d2d2d2d 2d2d2d2d     ----------------
 80059d4:	2d2d2d2d 2d2d2d2d 2d2d2d2d 2d2d2d2d     ----------------
 80059e4:	2d2d2d2d 2d2d2d2d 2d2d2d2d 2d2d2d2d     ----------------
 80059f4:	74000a2d 6c61746f 20642520 636f7270     -..total %d proc
 8005a04:	65737365 000a7373 38302325 20202058     essess..%#08X   
 8005a14:	20202020 20202020 20202020 20202020                     
 8005a24:	20202020 25002020 25286233 29643230           .%3b(%02d)
 8005a34:	25002020 252f6233 25286233 29643230       .%3b/%3b(%02d)
 8005a44:	322d2500 30322e30 20202073 20202020     .%-20.20s       
 8005a54:	57002020 696e7261 203a676e 54455048       .Warning: HPET
 8005a64:	61747320 73207472 20627574 6c6c6163      start stub call
 8005a74:	000a6465 6e726157 3a676e69 45504820     ed..Warning: HPE
 8005a84:	74732054 7320706f 20627574 6c6c6163     T stop stub call
 8005a94:	000a6465 6e726157 3a676e69 45504820     ed..Warning: HPE
 8005aa4:	6c652054 65737061 74732064 63206275     T elapsed stub c
 8005ab4:	656c6c61 57000a64 696e7261 203a676e     alled..Warning: 
 8005ac4:	54455048 6d697420 74756f65 206e6f20     HPET timeout on 
 8005ad4:	45455246 4e555220 646f6d20 73203a65     FREE RUN mode: s
 8005ae4:	6e6f6365 75702064 2065736c 69207369     econd pulse is i
 8005af4:	7463616e 20657669 4820726f 20544550     nactive or HPET 
 8005b04:	666e6f63 72756769 69206465 6f72706d     configured impro
 8005b14:	6c726570 45000a79 726f7272 6572203a     perly..Error: re
 8005b24:	76696563 25207265 50492073 766f2043     ceiver %s IPC ov
 8005b34:	6c667265 0a21776f 6e655300 3a726564     erflow!..Sender:
 8005b44:	654b0020 6c656e72 6d63000a 25203a64      .Kernel..cmd: %
 8005b54:	202c5823 203a3170 2c582325 3a327020     #X, p1: %#X, p2:
 8005b64:	58232520 3370202c 2325203a 49000a58      %#X, p3: %#X..I
 8005b74:	64204350 6c646165 3a6b636f 0a732520     PC deadlock: %s.
 8005b84:	00000000                                ....

08005b88 <__LIB>:
 8005b88:	08005be8 08005c0c 08005b9c 08005c30     .[...\...[..0\..
 8005b98:	08005c54                                T\..

08005b9c <__LIB_SYSTIME>:
 8005b9c:	08001ed9 08001e3d 08001eff 08001e6d     ....=.......m...
 8005bac:	08001e81 08001e95 08001eb5 08001f7d     ............}...
 8005bbc:	08001f5f 08001f41                       _...A...

08005bc4 <zeroes>:
 8005bc4:	30303030 30303030 4d4b3030 002d0047     0000000000KMG.-.
 8005bd4:	7830002b 20004f00                                +.0x.O.

08005bdb <spaces>:
 8005bdb:	20202020 20202020 00002020 0024f700                        ...

08005be8 <__LIB_STD>:
 8005be8:	080024f7 0800251d 08001f99 08002135     .$...%......5!..
 8005bf8:	08001fcf 080021fb 08001fe3 08002357     .....!......W#..
 8005c08:	080023f5                                .#..

08005c0c <__LIB_STDIO>:
 8005c0c:	080025b1 08002981 0800295d 080024f7     .%...)..])...$..
 8005c1c:	0800251d 080029ff 080029d1 0800298d     .%...)...)...)..
 8005c2c:	080029ab                                .)..

08005c30 <__LIB_ARRAY>:
 8005c30:	08002a1d 08002a3d 08002a7b 08002a4d     .*..=*..{*..M*..
 8005c40:	08002a9b 08002add 08002a53 08002b39     .*...*..S*..9+..
 8005c50:	08002a5d                                ]*..

08005c54 <__LIB_SO>:
 8005c54:	08002b7b 08002b91 08002caf 08002c55     {+...+...,..U,..
 8005c64:	08002d1d 08002b95 08002ba3 08002be5     .-...+...+...+..
 8005c74:	08002c29                                ),..

08005c78 <GPIO_POWER_PINS>:
 8005c78:	00000000 00000001 00000002 00000003     ................

08005c88 <GPIO>:
 8005c88:	40020000 40020400 40020800 40020c00     ...@...@...@...@

08005c98 <TIMER_REGS>:
 8005c98:	40000000 40000400 40000800 40000c00     ...@...@...@...@
 8005ca8:	40001000 40001400 40010800 40010c00     ...@...@...@...@
 8005cb8:	40011000                                ...@

08005cbc <TIMER_POWER_PORT>:
 8005cbc:	40023824 40023824 40023824 40023824     $8.@$8.@$8.@$8.@
 8005ccc:	40023824 40023824 40023820 40023820     $8.@$8.@ 8.@ 8.@
 8005cdc:	40023820                                 8.@

08005ce0 <TIMER_POWER_BIT>:
 8005ce0:	00000000 00000001 00000002 00000003     ................
 8005cf0:	00000004 00000005 00000002 00000003     ................
 8005d00:	00000004                                ....

08005d04 <CSWTCH.11>:
 8005d04:	68010101                                ...h

08005d08 <CSWTCH.12>:
 8005d08:	000a0200                                ....

08005d0c <TIMER_VECTORS>:
 8005d0c:	0000001c 0000001d 0000001e 0000002e     ................
 8005d1c:	0000002b 0000002c 00000019 0000001a     +...,...........
 8005d2c:	0000001b                                ....

08005d30 <__STM32_CORE>:
 8005d30:	08005d44 0000030c 0000005a 01000001     D]......Z.......
 8005d40:	08003853 334d5453 6f632032 64206572     S8..STM32 core d
 8005d50:	65766972 00020072                                river.

08005d56 <CSWTCH.39>:
 8005d56:	01000002 00000000 00000000 00250300              ..............

08005d64 <UART_VECTORS>:
 8005d64:	00000025 00000026 00000027              %...&...'...

08005d70 <UART_POWER_PINS>:
 8005d70:	0000000e 00000011 00000012              ............

08005d7c <UART_REGS>:
 8005d7c:	40013800 40004400 40004800              .8.@.D.@.H.@

08005d88 <__SPI_VECTORS>:
 8005d88:	00002423                                #$..

08005d8c <__SPI_REGS>:
 8005d8c:	40013000 40003800                       .0.@.8.@

08005d94 <__STD_MEM>:
 8005d94:	08004c3f 08004c59 08004c79              ?L..YL..yL..

08005da0 <__APP>:
 8005da0:	08005dd0 00000384 000000c8 01000001     .]..............
 8005db0:	08004fe1 69646152 6f6f426f 6f482074     .O..RadioBoot Ho
 8005dc0:	202c7473 20555043 4d206425 000a7a48     st, CPU %d MHz..
 8005dd0:	20707041 6e69616d 4d4f4300 69203a4d     App main.COMM: i
 8005de0:	0a74696e 4d4f4300 73203a4d 74726174     nit..COMM: start
 8005df0:	4f43000a 203a4d4d 706f7473 0000000a     ..COMM: stop....
